	.section	__TEXT,__text,regular,pure_instructions
	.build_version macos, 11, 0
	.p2align	2
__ZN106_$LT$core..ops..range..Range$LT$usize$GT$$u20$as$u20$core..slice..index..SliceIndex$LT$$u5b$T$u5d$$GT$$GT$17get_unchecked_mut17h3d1bd52bdb8512a9E:
	.cfi_startproc
	sub	sp, sp, #80
	stp	x29, x30, [sp, #64]
	add	x29, sp, #64
	.cfi_def_cfa w29, 16
	.cfi_offset w30, -8
	.cfi_offset w29, -16
	str	x0, [sp, #32]
	stur	x1, [x29, #-24]
	stur	x2, [x29, #-16]
	ldur	x8, [x29, #-16]
	ldr	x9, [sp, #32]
	add	x8, x8, x9
	stur	x8, [x29, #-8]
	ldur	x8, [x29, #-8]
	str	x8, [sp, #24]
	ldr	x0, [sp, #24]
	ldur	x8, [x29, #-24]
	ldr	x9, [sp, #32]
	subs	x1, x8, x9
	bl	__ZN4core3ptr24slice_from_raw_parts_mut17h706b99508678d760E
	str	x0, [sp, #8]
	str	x1, [sp, #16]
	ldr	x1, [sp, #16]
	ldr	x0, [sp, #8]
	ldp	x29, x30, [sp, #64]
	add	sp, sp, #80
	ret
	.cfi_endproc

	.p2align	2
__ZN106_$LT$core..ops..range..Range$LT$usize$GT$$u20$as$u20$core..slice..index..SliceIndex$LT$$u5b$T$u5d$$GT$$GT$9index_mut17hf42911f2bfb3d776E:
	.cfi_startproc
	sub	sp, sp, #80
	stp	x29, x30, [sp, #64]
	add	x29, sp, #64
	.cfi_def_cfa w29, 16
	.cfi_offset w30, -8
	.cfi_offset w29, -16
	str	x0, [sp, #24]
	str	x1, [sp, #32]
	stur	x2, [x29, #-24]
	stur	x3, [x29, #-16]
	stur	x4, [x29, #-8]
	subs	x8, x0, x1
	b.hi	LBB1_2
	ldr	x8, [sp, #32]
	ldur	x9, [x29, #-16]
	subs	x8, x8, x9
	b.hi	LBB1_4
	b	LBB1_3
LBB1_2:
	ldur	x2, [x29, #-8]
	ldr	x1, [sp, #32]
	ldr	x0, [sp, #24]
	bl	__ZN4core5slice5index22slice_index_order_fail17hc183749c92b01b54E
LBB1_3:
	ldur	x3, [x29, #-16]
	ldur	x2, [x29, #-24]
	ldr	x1, [sp, #32]
	ldr	x0, [sp, #24]
	bl	__ZN106_$LT$core..ops..range..Range$LT$usize$GT$$u20$as$u20$core..slice..index..SliceIndex$LT$$u5b$T$u5d$$GT$$GT$17get_unchecked_mut17h3d1bd52bdb8512a9E
	str	x0, [sp, #8]
	str	x1, [sp, #16]
	b	LBB1_5
LBB1_4:
	ldur	x2, [x29, #-8]
	ldur	x1, [x29, #-16]
	ldr	x0, [sp, #32]
	bl	__ZN4core5slice5index24slice_end_index_len_fail17ha15dbc62ef73b759E
LBB1_5:
	ldr	x1, [sp, #16]
	ldr	x0, [sp, #8]
	ldp	x29, x30, [sp, #64]
	add	sp, sp, #80
	ret
	.cfi_endproc

	.p2align	2
__ZN108_$LT$core..ops..range..RangeTo$LT$usize$GT$$u20$as$u20$core..slice..index..SliceIndex$LT$$u5b$T$u5d$$GT$$GT$9index_mut17h8d0c703d7d647df7E:
	.cfi_startproc
	sub	sp, sp, #64
	stp	x29, x30, [sp, #48]
	add	x29, sp, #48
	.cfi_def_cfa w29, 16
	.cfi_offset w30, -8
	.cfi_offset w29, -16
	str	x1, [sp]
	mov	x1, x2
	ldr	x2, [sp]
	str	x1, [sp, #8]
	mov	x4, x3
	ldr	x3, [sp, #8]
	stur	xzr, [x29, #-16]
	stur	x0, [x29, #-8]
	ldur	x0, [x29, #-16]
	ldur	x1, [x29, #-8]
	bl	__ZN106_$LT$core..ops..range..Range$LT$usize$GT$$u20$as$u20$core..slice..index..SliceIndex$LT$$u5b$T$u5d$$GT$$GT$9index_mut17hf42911f2bfb3d776E
	str	x0, [sp, #16]
	str	x1, [sp, #24]
	ldr	x1, [sp, #24]
	ldr	x0, [sp, #16]
	ldp	x29, x30, [sp, #48]
	add	sp, sp, #64
	ret
	.cfi_endproc

	.p2align	2
__ZN119_$LT$core..ptr..non_null..NonNull$LT$T$GT$$u20$as$u20$core..convert..From$LT$core..ptr..unique..Unique$LT$T$GT$$GT$$GT$4from17h47198fd5c46fd6d7E:
	.cfi_startproc
	sub	sp, sp, #32
	stp	x29, x30, [sp, #16]
	add	x29, sp, #16
	.cfi_def_cfa w29, 16
	.cfi_offset w30, -8
	.cfi_offset w29, -16
	bl	__ZN4core3ptr6unique15Unique$LT$T$GT$6as_ptr17h08209de83d032ad2E
	str	x0, [sp, #8]
	ldr	x0, [sp, #8]
	bl	__ZN4core3ptr8non_null16NonNull$LT$T$GT$13new_unchecked17h86e34487677d5b2eE
	str	x0, [sp]
	ldr	x0, [sp]
	ldp	x29, x30, [sp, #16]
	add	sp, sp, #32
	ret
	.cfi_endproc

	.p2align	2
__ZN122_$LT$alloc..collections..TryReserveError$u20$as$u20$core..convert..From$LT$alloc..collections..TryReserveErrorKind$GT$$GT$4from17h3cdb815b564b75eaE:
	.cfi_startproc
	sub	sp, sp, #16
	.cfi_def_cfa_offset 16
	str	x0, [sp]
	str	x1, [sp, #8]
	ldr	x0, [sp]
	ldr	x1, [sp, #8]
	add	sp, sp, #16
	ret
	.cfi_endproc

	.p2align	2
__ZN132_$LT$alloc..vec..Vec$LT$T$C$A$GT$$u20$as$u20$alloc..vec..spec_extend..SpecExtend$LT$$RF$T$C$core..slice..iter..Iter$LT$T$GT$$GT$$GT$11spec_extend17hae672cf1e3d8c6d0E:
	.cfi_startproc
	sub	sp, sp, #64
	stp	x29, x30, [sp, #48]
	add	x29, sp, #48
	.cfi_def_cfa w29, 16
	.cfi_offset w30, -8
	.cfi_offset w29, -16
	str	x0, [sp, #8]
	sub	x0, x29, #16
	stur	x1, [x29, #-16]
	stur	x2, [x29, #-8]
	bl	__ZN4core5slice4iter13Iter$LT$T$GT$8as_slice17h09a5704d5a66b5fbE
	str	x0, [sp, #16]
	str	x1, [sp, #24]
	ldr	x2, [sp, #24]
	ldr	x1, [sp, #16]
	ldr	x0, [sp, #8]
	bl	__ZN5alloc3vec16Vec$LT$T$C$A$GT$15append_elements17hbbee64e8aecf4414E
	ldp	x29, x30, [sp, #48]
	add	sp, sp, #64
	ret
	.cfi_endproc

	.p2align	2
__ZN153_$LT$core..result..Result$LT$T$C$F$GT$$u20$as$u20$core..ops..try_trait..FromResidual$LT$core..result..Result$LT$core..convert..Infallible$C$E$GT$$GT$$GT$13from_residual17h49981dea9af537daE:
	.cfi_startproc
	sub	sp, sp, #32
	stp	x29, x30, [sp, #16]
	add	x29, sp, #16
	.cfi_def_cfa w29, 16
	.cfi_offset w30, -8
	.cfi_offset w29, -16
	bl	__ZN50_$LT$T$u20$as$u20$core..convert..From$LT$T$GT$$GT$4from17h118f433ef2315747E
	str	xzr, [sp]
	str	xzr, [sp, #8]
	str	xzr, [sp]
	ldr	x0, [sp]
	ldr	x1, [sp, #8]
	ldp	x29, x30, [sp, #16]
	add	sp, sp, #32
	ret
	.cfi_endproc

	.p2align	2
__ZN153_$LT$core..result..Result$LT$T$C$F$GT$$u20$as$u20$core..ops..try_trait..FromResidual$LT$core..result..Result$LT$core..convert..Infallible$C$E$GT$$GT$$GT$13from_residual17h63beec4fba69f15cE:
	.cfi_startproc
	sub	sp, sp, #64
	stp	x29, x30, [sp, #48]
	add	x29, sp, #48
	.cfi_def_cfa w29, 16
	.cfi_offset w30, -8
	.cfi_offset w29, -16
	str	x8, [sp, #8]
	stur	x0, [x29, #-16]
	stur	x1, [x29, #-8]
	ldur	x0, [x29, #-16]
	ldur	x1, [x29, #-8]
	bl	__ZN50_$LT$T$u20$as$u20$core..convert..From$LT$T$GT$$GT$4from17hbef8cfa4394127e0E
	str	x0, [sp, #16]
	str	x1, [sp, #24]
	ldr	x9, [sp, #8]
	ldr	x8, [sp, #24]
	ldr	x11, [sp, #16]
	add	x10, x9, #8
	str	x11, [x9, #8]
	str	x8, [x10, #8]
	mov	w8, #1
	str	x8, [x9]
	ldp	x29, x30, [sp, #48]
	add	sp, sp, #64
	ret
	.cfi_endproc

	.p2align	2
__ZN153_$LT$core..result..Result$LT$T$C$F$GT$$u20$as$u20$core..ops..try_trait..FromResidual$LT$core..result..Result$LT$core..convert..Infallible$C$E$GT$$GT$$GT$13from_residual17h66d6d1a3cf6e2510E:
	.cfi_startproc
	sub	sp, sp, #64
	stp	x29, x30, [sp, #48]
	add	x29, sp, #48
	.cfi_def_cfa w29, 16
	.cfi_offset w30, -8
	.cfi_offset w29, -16
	str	x8, [sp, #8]
	stur	x0, [x29, #-16]
	stur	x1, [x29, #-8]
	ldur	x0, [x29, #-16]
	ldur	x1, [x29, #-8]
	bl	__ZN122_$LT$alloc..collections..TryReserveError$u20$as$u20$core..convert..From$LT$alloc..collections..TryReserveErrorKind$GT$$GT$4from17h3cdb815b564b75eaE
	str	x0, [sp, #16]
	str	x1, [sp, #24]
	ldr	x9, [sp, #8]
	ldr	x8, [sp, #24]
	ldr	x11, [sp, #16]
	add	x10, x9, #8
	str	x11, [x9, #8]
	str	x8, [x10, #8]
	mov	w8, #1
	str	x8, [x9]
	ldp	x29, x30, [sp, #48]
	add	sp, sp, #64
	ret
	.cfi_endproc

	.p2align	2
__ZN153_$LT$core..result..Result$LT$T$C$F$GT$$u20$as$u20$core..ops..try_trait..FromResidual$LT$core..result..Result$LT$core..convert..Infallible$C$E$GT$$GT$$GT$13from_residual17h6b96c8fa4afaf80bE:
	.cfi_startproc
	sub	sp, sp, #32
	stp	x29, x30, [sp, #16]
	add	x29, sp, #16
	.cfi_def_cfa w29, 16
	.cfi_offset w30, -8
	.cfi_offset w29, -16
	str	x8, [sp, #8]
	bl	__ZN50_$LT$T$u20$as$u20$core..convert..From$LT$T$GT$$GT$4from17h0369ca4b3245990cE
	ldr	x8, [sp, #8]
	str	xzr, [x8]
	str	xzr, [x8, #8]
	str	xzr, [x8, #16]
	str	xzr, [x8, #8]
	ldp	x29, x30, [sp, #16]
	add	sp, sp, #32
	ret
	.cfi_endproc

	.p2align	2
__ZN153_$LT$core..result..Result$LT$T$C$F$GT$$u20$as$u20$core..ops..try_trait..FromResidual$LT$core..result..Result$LT$core..convert..Infallible$C$E$GT$$GT$$GT$13from_residual17h75d13845e049af48E:
	.cfi_startproc
	sub	sp, sp, #64
	stp	x29, x30, [sp, #48]
	add	x29, sp, #48
	.cfi_def_cfa w29, 16
	.cfi_offset w30, -8
	.cfi_offset w29, -16
	str	x8, [sp, #8]
	stur	x0, [x29, #-16]
	stur	x1, [x29, #-8]
	ldur	x0, [x29, #-16]
	ldur	x1, [x29, #-8]
	bl	__ZN50_$LT$T$u20$as$u20$core..convert..From$LT$T$GT$$GT$4from17hbef8cfa4394127e0E
	str	x0, [sp, #16]
	str	x1, [sp, #24]
	ldr	x9, [sp, #8]
	ldr	x8, [sp, #24]
	ldr	x11, [sp, #16]
	add	x10, x9, #8
	str	x11, [x9, #8]
	str	x8, [x10, #8]
	mov	w8, #1
	str	x8, [x9]
	ldp	x29, x30, [sp, #48]
	add	sp, sp, #64
	ret
	.cfi_endproc

	.p2align	2
__ZN153_$LT$core..result..Result$LT$T$C$F$GT$$u20$as$u20$core..ops..try_trait..FromResidual$LT$core..result..Result$LT$core..convert..Infallible$C$E$GT$$GT$$GT$13from_residual17hb43ae3cb8a6e4844E:
	.cfi_startproc
	sub	sp, sp, #64
	stp	x29, x30, [sp, #48]
	add	x29, sp, #48
	.cfi_def_cfa w29, 16
	.cfi_offset w30, -8
	.cfi_offset w29, -16
	str	x8, [sp, #8]
	stur	x0, [x29, #-16]
	stur	x1, [x29, #-8]
	ldur	x0, [x29, #-16]
	ldur	x1, [x29, #-8]
	bl	__ZN122_$LT$alloc..collections..TryReserveError$u20$as$u20$core..convert..From$LT$alloc..collections..TryReserveErrorKind$GT$$GT$4from17h3cdb815b564b75eaE
	str	x0, [sp, #16]
	str	x1, [sp, #24]
	ldr	x9, [sp, #8]
	ldr	x8, [sp, #24]
	ldr	x11, [sp, #16]
	add	x10, x9, #8
	str	x11, [x9, #8]
	str	x8, [x10, #8]
	mov	w8, #1
	str	x8, [x9]
	ldp	x29, x30, [sp, #48]
	add	sp, sp, #64
	ret
	.cfi_endproc

	.p2align	2
__ZN153_$LT$core..result..Result$LT$T$C$F$GT$$u20$as$u20$core..ops..try_trait..FromResidual$LT$core..result..Result$LT$core..convert..Infallible$C$E$GT$$GT$$GT$13from_residual17head3d6e14dbdfb16E:
	.cfi_startproc
	sub	sp, sp, #32
	stp	x29, x30, [sp, #16]
	add	x29, sp, #16
	.cfi_def_cfa w29, 16
	.cfi_offset w30, -8
	.cfi_offset w29, -16
	bl	__ZN50_$LT$T$u20$as$u20$core..convert..From$LT$T$GT$$GT$4from17h0369ca4b3245990cE
	str	xzr, [sp]
	str	xzr, [sp, #8]
	str	xzr, [sp, #8]
	ldr	x0, [sp]
	ldr	x1, [sp, #8]
	ldp	x29, x30, [sp, #16]
	add	sp, sp, #32
	ret
	.cfi_endproc

	.p2align	2
__ZN3std10sys_common9backtrace28__rust_begin_short_backtrace17hfaca5466ce808367E:
Lfunc_begin0:
	.cfi_startproc
	.cfi_personality 155, _rust_eh_personality
	.cfi_lsda 16, Lexception0
	sub	sp, sp, #32
	stp	x29, x30, [sp, #16]
	add	x29, sp, #16
	.cfi_def_cfa w29, 16
	.cfi_offset w30, -8
	.cfi_offset w29, -16
	bl	__ZN4core3ops8function6FnOnce9call_once17h77d32bb804faedceE
Ltmp1:
	bl	__ZN4core4hint9black_box17hd934d13d8ba6342cE
Ltmp2:
	ldp	x29, x30, [sp, #16]
	add	sp, sp, #32
	ret
LBB13_3:
	b	LBB13_5
LBB13_4:
Ltmp3:
	mov	x8, x1
	str	x0, [sp]
	str	w8, [sp, #8]
	b	LBB13_3
LBB13_5:
	ldr	x0, [sp]
	bl	__Unwind_Resume
Lfunc_end0:
	.cfi_endproc
	.section	__TEXT,__gcc_except_tab
	.p2align	2
GCC_except_table13:
Lexception0:
	.byte	255
	.byte	255
	.byte	1
	.uleb128 Lcst_end0-Lcst_begin0
Lcst_begin0:
	.uleb128 Lfunc_begin0-Lfunc_begin0
	.uleb128 Ltmp1-Lfunc_begin0
	.byte	0
	.byte	0
	.uleb128 Ltmp1-Lfunc_begin0
	.uleb128 Ltmp2-Ltmp1
	.uleb128 Ltmp3-Lfunc_begin0
	.byte	0
	.uleb128 Ltmp2-Lfunc_begin0
	.uleb128 Lfunc_end0-Ltmp2
	.byte	0
	.byte	0
Lcst_end0:
	.p2align	2

	.section	__TEXT,__text,regular,pure_instructions
	.private_extern	__ZN3std2rt10lang_start17h35bf129072d0a934E
	.globl	__ZN3std2rt10lang_start17h35bf129072d0a934E
	.p2align	2
__ZN3std2rt10lang_start17h35bf129072d0a934E:
	.cfi_startproc
	sub	sp, sp, #48
	stp	x29, x30, [sp, #32]
	add	x29, sp, #32
	.cfi_def_cfa w29, 16
	.cfi_offset w30, -8
	.cfi_offset w29, -16
	mov	x8, x0
	str	x1, [sp, #8]
	mov	x3, x2
	ldr	x2, [sp, #8]
	sub	x0, x29, #8
	stur	x8, [x29, #-8]
	adrp	x1, l___unnamed_1@PAGE
	add	x1, x1, l___unnamed_1@PAGEOFF
	bl	__ZN3std2rt19lang_start_internal17hc245c4266d131202E
	str	x0, [sp, #16]
	ldr	x0, [sp, #16]
	ldp	x29, x30, [sp, #32]
	add	sp, sp, #48
	ret
	.cfi_endproc

	.p2align	2
__ZN3std2rt10lang_start28_$u7b$$u7b$closure$u7d$$u7d$17h6e15b9395216f6f0E:
	.cfi_startproc
	sub	sp, sp, #32
	stp	x29, x30, [sp, #16]
	add	x29, sp, #16
	.cfi_def_cfa w29, 16
	.cfi_offset w30, -8
	.cfi_offset w29, -16
	ldr	x0, [x0]
	bl	__ZN3std10sys_common9backtrace28__rust_begin_short_backtrace17hfaca5466ce808367E
	bl	__ZN54_$LT$$LP$$RP$$u20$as$u20$std..process..Termination$GT$6report17h780f3d6f90030c7bE
	stur	w0, [x29, #-4]
	ldur	w0, [x29, #-4]
	ldp	x29, x30, [sp, #16]
	add	sp, sp, #32
	ret
	.cfi_endproc

	.p2align	2
__ZN3std3sys4unix7process14process_common8ExitCode6as_i3217h0da305a8027481d8E:
	.cfi_startproc
	ldrb	w0, [x0]
	ret
	.cfi_endproc

	.p2align	2
__ZN44_$LT$$RF$T$u20$as$u20$core..fmt..Display$GT$3fmt17hc89f3bdad0f57259E:
	.cfi_startproc
	sub	sp, sp, #32
	stp	x29, x30, [sp, #16]
	add	x29, sp, #16
	.cfi_def_cfa w29, 16
	.cfi_offset w30, -8
	.cfi_offset w29, -16
	mov	x8, x0
	mov	x2, x1
	ldr	x0, [x8]
	ldr	x1, [x8, #8]
	bl	__ZN42_$LT$str$u20$as$u20$core..fmt..Display$GT$3fmt17h99f11c5aac7a2136E
	stur	w0, [x29, #-4]
	ldur	w8, [x29, #-4]
	and	w0, w8, #0x1
	ldp	x29, x30, [sp, #16]
	add	sp, sp, #32
	ret
	.cfi_endproc

	.p2align	2
__ZN45_$LT$T$u20$as$u20$alloc..string..ToString$GT$9to_string17h1a2bb907976a879aE:
Lfunc_begin1:
	.cfi_startproc
	.cfi_personality 155, _rust_eh_personality
	.cfi_lsda 16, Lexception1
	sub	sp, sp, #128
	stp	x29, x30, [sp, #112]
	add	x29, sp, #112
	.cfi_def_cfa w29, 16
	.cfi_offset w30, -8
	.cfi_offset w29, -16
	str	x8, [sp, #16]
	str	x0, [sp, #24]
	bl	__ZN5alloc6string6String3new17ha6ffa4394da47885E
Ltmp4:
	ldr	x0, [sp, #16]
	add	x8, sp, #32
	adrp	x1, l___unnamed_2@PAGE
	add	x1, x1, l___unnamed_2@PAGEOFF
	bl	__ZN4core3fmt9Formatter3new17he91a0eb9f4af48ceE
Ltmp5:
Ltmp6:
	ldr	x0, [sp, #24]
	add	x1, sp, #32
	bl	__ZN4core3fmt3num3imp52_$LT$impl$u20$core..fmt..Display$u20$for$u20$i32$GT$3fmt17hd6173c5fe336296aE
	str	w0, [sp, #12]
Ltmp7:
	b	LBB18_5
LBB18_3:
	ldr	x0, [sp, #16]
	bl	__ZN4core3ptr42drop_in_place$LT$alloc..string..String$GT$17heb60139a42813a57E
	b	LBB18_7
LBB18_4:
Ltmp10:
	mov	x8, x1
	stur	x0, [x29, #-16]
	stur	w8, [x29, #-8]
	b	LBB18_3
LBB18_5:
Ltmp8:
	ldr	w8, [sp, #12]
	and	w0, w8, #0x1
	adrp	x1, l___unnamed_3@PAGE
	add	x1, x1, l___unnamed_3@PAGEOFF
	mov	w8, #55
	mov	x2, x8
	adrp	x3, l___unnamed_4@PAGE
	add	x3, x3, l___unnamed_4@PAGEOFF
	bl	__ZN4core6result19Result$LT$T$C$E$GT$6expect17hd8db540ed61674beE
Ltmp9:
	ldp	x29, x30, [sp, #112]
	add	sp, sp, #128
	ret
LBB18_7:
	ldur	x0, [x29, #-16]
	bl	__Unwind_Resume
Lfunc_end1:
	.cfi_endproc
	.section	__TEXT,__gcc_except_tab
	.p2align	2
GCC_except_table18:
Lexception1:
	.byte	255
	.byte	255
	.byte	1
	.uleb128 Lcst_end1-Lcst_begin1
Lcst_begin1:
	.uleb128 Lfunc_begin1-Lfunc_begin1
	.uleb128 Ltmp4-Lfunc_begin1
	.byte	0
	.byte	0
	.uleb128 Ltmp4-Lfunc_begin1
	.uleb128 Ltmp7-Ltmp4
	.uleb128 Ltmp10-Lfunc_begin1
	.byte	0
	.uleb128 Ltmp7-Lfunc_begin1
	.uleb128 Ltmp8-Ltmp7
	.byte	0
	.byte	0
	.uleb128 Ltmp8-Lfunc_begin1
	.uleb128 Ltmp9-Ltmp8
	.uleb128 Ltmp10-Lfunc_begin1
	.byte	0
	.uleb128 Ltmp9-Lfunc_begin1
	.uleb128 Lfunc_end1-Ltmp9
	.byte	0
	.byte	0
Lcst_end1:
	.p2align	2

	.section	__TEXT,__text,regular,pure_instructions
	.p2align	2
__ZN45_$LT$T$u20$as$u20$alloc..string..ToString$GT$9to_string17h247675055a8814a7E:
Lfunc_begin2:
	.cfi_startproc
	.cfi_personality 155, _rust_eh_personality
	.cfi_lsda 16, Lexception2
	sub	sp, sp, #128
	stp	x29, x30, [sp, #112]
	add	x29, sp, #112
	.cfi_def_cfa w29, 16
	.cfi_offset w30, -8
	.cfi_offset w29, -16
	str	x8, [sp, #16]
	str	x0, [sp, #24]
	bl	__ZN5alloc6string6String3new17ha6ffa4394da47885E
Ltmp11:
	ldr	x0, [sp, #16]
	add	x8, sp, #32
	adrp	x1, l___unnamed_2@PAGE
	add	x1, x1, l___unnamed_2@PAGEOFF
	bl	__ZN4core3fmt9Formatter3new17he91a0eb9f4af48ceE
Ltmp12:
Ltmp13:
	ldr	x0, [sp, #24]
	add	x1, sp, #32
	bl	__ZN4core3fmt3num3imp52_$LT$impl$u20$core..fmt..Display$u20$for$u20$u32$GT$3fmt17h8b83559ac1654a7fE
	str	w0, [sp, #12]
Ltmp14:
	b	LBB19_5
LBB19_3:
	ldr	x0, [sp, #16]
	bl	__ZN4core3ptr42drop_in_place$LT$alloc..string..String$GT$17heb60139a42813a57E
	b	LBB19_7
LBB19_4:
Ltmp17:
	mov	x8, x1
	stur	x0, [x29, #-16]
	stur	w8, [x29, #-8]
	b	LBB19_3
LBB19_5:
Ltmp15:
	ldr	w8, [sp, #12]
	and	w0, w8, #0x1
	adrp	x1, l___unnamed_3@PAGE
	add	x1, x1, l___unnamed_3@PAGEOFF
	mov	w8, #55
	mov	x2, x8
	adrp	x3, l___unnamed_4@PAGE
	add	x3, x3, l___unnamed_4@PAGEOFF
	bl	__ZN4core6result19Result$LT$T$C$E$GT$6expect17hd8db540ed61674beE
Ltmp16:
	ldp	x29, x30, [sp, #112]
	add	sp, sp, #128
	ret
LBB19_7:
	ldur	x0, [x29, #-16]
	bl	__Unwind_Resume
Lfunc_end2:
	.cfi_endproc
	.section	__TEXT,__gcc_except_tab
	.p2align	2
GCC_except_table19:
Lexception2:
	.byte	255
	.byte	255
	.byte	1
	.uleb128 Lcst_end2-Lcst_begin2
Lcst_begin2:
	.uleb128 Lfunc_begin2-Lfunc_begin2
	.uleb128 Ltmp11-Lfunc_begin2
	.byte	0
	.byte	0
	.uleb128 Ltmp11-Lfunc_begin2
	.uleb128 Ltmp14-Ltmp11
	.uleb128 Ltmp17-Lfunc_begin2
	.byte	0
	.uleb128 Ltmp14-Lfunc_begin2
	.uleb128 Ltmp15-Ltmp14
	.byte	0
	.byte	0
	.uleb128 Ltmp15-Lfunc_begin2
	.uleb128 Ltmp16-Ltmp15
	.uleb128 Ltmp17-Lfunc_begin2
	.byte	0
	.uleb128 Ltmp16-Lfunc_begin2
	.uleb128 Lfunc_end2-Ltmp16
	.byte	0
	.byte	0
Lcst_end2:
	.p2align	2

	.section	__TEXT,__text,regular,pure_instructions
	.p2align	2
__ZN45_$LT$T$u20$as$u20$alloc..string..ToString$GT$9to_string17h30cc7d66e92fe474E:
Lfunc_begin3:
	.cfi_startproc
	.cfi_personality 155, _rust_eh_personality
	.cfi_lsda 16, Lexception3
	sub	sp, sp, #128
	stp	x29, x30, [sp, #112]
	add	x29, sp, #112
	.cfi_def_cfa w29, 16
	.cfi_offset w30, -8
	.cfi_offset w29, -16
	str	x8, [sp, #16]
	str	x0, [sp, #24]
	bl	__ZN5alloc6string6String3new17ha6ffa4394da47885E
Ltmp18:
	ldr	x0, [sp, #16]
	add	x8, sp, #32
	adrp	x1, l___unnamed_2@PAGE
	add	x1, x1, l___unnamed_2@PAGEOFF
	bl	__ZN4core3fmt9Formatter3new17he91a0eb9f4af48ceE
Ltmp19:
Ltmp20:
	ldr	x0, [sp, #24]
	add	x1, sp, #32
	bl	__ZN4core3fmt3num3imp52_$LT$impl$u20$core..fmt..Display$u20$for$u20$i64$GT$3fmt17hc076db6dbd2db73bE
	str	w0, [sp, #12]
Ltmp21:
	b	LBB20_5
LBB20_3:
	ldr	x0, [sp, #16]
	bl	__ZN4core3ptr42drop_in_place$LT$alloc..string..String$GT$17heb60139a42813a57E
	b	LBB20_7
LBB20_4:
Ltmp24:
	mov	x8, x1
	stur	x0, [x29, #-16]
	stur	w8, [x29, #-8]
	b	LBB20_3
LBB20_5:
Ltmp22:
	ldr	w8, [sp, #12]
	and	w0, w8, #0x1
	adrp	x1, l___unnamed_3@PAGE
	add	x1, x1, l___unnamed_3@PAGEOFF
	mov	w8, #55
	mov	x2, x8
	adrp	x3, l___unnamed_4@PAGE
	add	x3, x3, l___unnamed_4@PAGEOFF
	bl	__ZN4core6result19Result$LT$T$C$E$GT$6expect17hd8db540ed61674beE
Ltmp23:
	ldp	x29, x30, [sp, #112]
	add	sp, sp, #128
	ret
LBB20_7:
	ldur	x0, [x29, #-16]
	bl	__Unwind_Resume
Lfunc_end3:
	.cfi_endproc
	.section	__TEXT,__gcc_except_tab
	.p2align	2
GCC_except_table20:
Lexception3:
	.byte	255
	.byte	255
	.byte	1
	.uleb128 Lcst_end3-Lcst_begin3
Lcst_begin3:
	.uleb128 Lfunc_begin3-Lfunc_begin3
	.uleb128 Ltmp18-Lfunc_begin3
	.byte	0
	.byte	0
	.uleb128 Ltmp18-Lfunc_begin3
	.uleb128 Ltmp21-Ltmp18
	.uleb128 Ltmp24-Lfunc_begin3
	.byte	0
	.uleb128 Ltmp21-Lfunc_begin3
	.uleb128 Ltmp22-Ltmp21
	.byte	0
	.byte	0
	.uleb128 Ltmp22-Lfunc_begin3
	.uleb128 Ltmp23-Ltmp22
	.uleb128 Ltmp24-Lfunc_begin3
	.byte	0
	.uleb128 Ltmp23-Lfunc_begin3
	.uleb128 Lfunc_end3-Ltmp23
	.byte	0
	.byte	0
Lcst_end3:
	.p2align	2

	.section	__TEXT,__text,regular,pure_instructions
	.p2align	2
__ZN45_$LT$T$u20$as$u20$alloc..string..ToString$GT$9to_string17h6297386d4d63e4b3E:
Lfunc_begin4:
	.cfi_startproc
	.cfi_personality 155, _rust_eh_personality
	.cfi_lsda 16, Lexception4
	sub	sp, sp, #128
	stp	x29, x30, [sp, #112]
	add	x29, sp, #112
	.cfi_def_cfa w29, 16
	.cfi_offset w30, -8
	.cfi_offset w29, -16
	str	x8, [sp, #16]
	str	x0, [sp, #24]
	bl	__ZN5alloc6string6String3new17ha6ffa4394da47885E
Ltmp25:
	ldr	x0, [sp, #16]
	add	x8, sp, #32
	adrp	x1, l___unnamed_2@PAGE
	add	x1, x1, l___unnamed_2@PAGEOFF
	bl	__ZN4core3fmt9Formatter3new17he91a0eb9f4af48ceE
Ltmp26:
Ltmp27:
	ldr	x0, [sp, #24]
	add	x1, sp, #32
	bl	__ZN4core3fmt3num3imp52_$LT$impl$u20$core..fmt..Display$u20$for$u20$u64$GT$3fmt17hd7e6f5eddbe3034cE
	str	w0, [sp, #12]
Ltmp28:
	b	LBB21_5
LBB21_3:
	ldr	x0, [sp, #16]
	bl	__ZN4core3ptr42drop_in_place$LT$alloc..string..String$GT$17heb60139a42813a57E
	b	LBB21_7
LBB21_4:
Ltmp31:
	mov	x8, x1
	stur	x0, [x29, #-16]
	stur	w8, [x29, #-8]
	b	LBB21_3
LBB21_5:
Ltmp29:
	ldr	w8, [sp, #12]
	and	w0, w8, #0x1
	adrp	x1, l___unnamed_3@PAGE
	add	x1, x1, l___unnamed_3@PAGEOFF
	mov	w8, #55
	mov	x2, x8
	adrp	x3, l___unnamed_4@PAGE
	add	x3, x3, l___unnamed_4@PAGEOFF
	bl	__ZN4core6result19Result$LT$T$C$E$GT$6expect17hd8db540ed61674beE
Ltmp30:
	ldp	x29, x30, [sp, #112]
	add	sp, sp, #128
	ret
LBB21_7:
	ldur	x0, [x29, #-16]
	bl	__Unwind_Resume
Lfunc_end4:
	.cfi_endproc
	.section	__TEXT,__gcc_except_tab
	.p2align	2
GCC_except_table21:
Lexception4:
	.byte	255
	.byte	255
	.byte	1
	.uleb128 Lcst_end4-Lcst_begin4
Lcst_begin4:
	.uleb128 Lfunc_begin4-Lfunc_begin4
	.uleb128 Ltmp25-Lfunc_begin4
	.byte	0
	.byte	0
	.uleb128 Ltmp25-Lfunc_begin4
	.uleb128 Ltmp28-Ltmp25
	.uleb128 Ltmp31-Lfunc_begin4
	.byte	0
	.uleb128 Ltmp28-Lfunc_begin4
	.uleb128 Ltmp29-Ltmp28
	.byte	0
	.byte	0
	.uleb128 Ltmp29-Lfunc_begin4
	.uleb128 Ltmp30-Ltmp29
	.uleb128 Ltmp31-Lfunc_begin4
	.byte	0
	.uleb128 Ltmp30-Lfunc_begin4
	.uleb128 Lfunc_end4-Ltmp30
	.byte	0
	.byte	0
Lcst_end4:
	.p2align	2

	.section	__TEXT,__text,regular,pure_instructions
	.p2align	2
__ZN45_$LT$T$u20$as$u20$alloc..string..ToString$GT$9to_string17hf3c2eeb32b098395E:
Lfunc_begin5:
	.cfi_startproc
	.cfi_personality 155, _rust_eh_personality
	.cfi_lsda 16, Lexception5
	sub	sp, sp, #128
	stp	x29, x30, [sp, #112]
	add	x29, sp, #112
	.cfi_def_cfa w29, 16
	.cfi_offset w30, -8
	.cfi_offset w29, -16
	str	x8, [sp, #16]
	str	x0, [sp, #24]
	bl	__ZN5alloc6string6String3new17ha6ffa4394da47885E
Ltmp32:
	ldr	x0, [sp, #16]
	add	x8, sp, #32
	adrp	x1, l___unnamed_2@PAGE
	add	x1, x1, l___unnamed_2@PAGEOFF
	bl	__ZN4core3fmt9Formatter3new17he91a0eb9f4af48ceE
Ltmp33:
Ltmp34:
	ldr	x0, [sp, #24]
	add	x1, sp, #32
	bl	__ZN44_$LT$$RF$T$u20$as$u20$core..fmt..Display$GT$3fmt17hc89f3bdad0f57259E
	str	w0, [sp, #12]
Ltmp35:
	b	LBB22_5
LBB22_3:
	ldr	x0, [sp, #16]
	bl	__ZN4core3ptr42drop_in_place$LT$alloc..string..String$GT$17heb60139a42813a57E
	b	LBB22_7
LBB22_4:
Ltmp38:
	mov	x8, x1
	stur	x0, [x29, #-16]
	stur	w8, [x29, #-8]
	b	LBB22_3
LBB22_5:
Ltmp36:
	ldr	w8, [sp, #12]
	and	w0, w8, #0x1
	adrp	x1, l___unnamed_3@PAGE
	add	x1, x1, l___unnamed_3@PAGEOFF
	mov	w8, #55
	mov	x2, x8
	adrp	x3, l___unnamed_4@PAGE
	add	x3, x3, l___unnamed_4@PAGEOFF
	bl	__ZN4core6result19Result$LT$T$C$E$GT$6expect17hd8db540ed61674beE
Ltmp37:
	ldp	x29, x30, [sp, #112]
	add	sp, sp, #128
	ret
LBB22_7:
	ldur	x0, [x29, #-16]
	bl	__Unwind_Resume
Lfunc_end5:
	.cfi_endproc
	.section	__TEXT,__gcc_except_tab
	.p2align	2
GCC_except_table22:
Lexception5:
	.byte	255
	.byte	255
	.byte	1
	.uleb128 Lcst_end5-Lcst_begin5
Lcst_begin5:
	.uleb128 Lfunc_begin5-Lfunc_begin5
	.uleb128 Ltmp32-Lfunc_begin5
	.byte	0
	.byte	0
	.uleb128 Ltmp32-Lfunc_begin5
	.uleb128 Ltmp35-Ltmp32
	.uleb128 Ltmp38-Lfunc_begin5
	.byte	0
	.uleb128 Ltmp35-Lfunc_begin5
	.uleb128 Ltmp36-Ltmp35
	.byte	0
	.byte	0
	.uleb128 Ltmp36-Lfunc_begin5
	.uleb128 Ltmp37-Ltmp36
	.uleb128 Ltmp38-Lfunc_begin5
	.byte	0
	.uleb128 Ltmp37-Lfunc_begin5
	.uleb128 Lfunc_end5-Ltmp37
	.byte	0
	.byte	0
Lcst_end5:
	.p2align	2

	.section	__TEXT,__text,regular,pure_instructions
	.p2align	2
__ZN4core10intrinsics11write_bytes17h93d317cb7bdf1762E:
	.cfi_startproc
	stp	x29, x30, [sp, #-16]!
	mov	x29, sp
	.cfi_def_cfa w29, 16
	.cfi_offset w30, -8
	.cfi_offset w29, -16
	mov	w8, #1
	mul	x2, x8, x2
	bl	_memset
	ldp	x29, x30, [sp], #16
	ret
	.cfi_endproc

	.p2align	2
__ZN4core10intrinsics19copy_nonoverlapping17h33629aa7746c9b29E:
	.cfi_startproc
	sub	sp, sp, #32
	stp	x29, x30, [sp, #16]
	add	x29, sp, #16
	.cfi_def_cfa w29, 16
	.cfi_offset w30, -8
	.cfi_offset w29, -16
	str	x0, [sp, #8]
	mov	x0, x1
	ldr	x1, [sp, #8]
	lsr	x2, x2, #0
	bl	_memcpy
	ldp	x29, x30, [sp, #16]
	add	sp, sp, #32
	ret
	.cfi_endproc

	.p2align	2
__ZN4core3cmp3Ord3max17h196083ca316afd80E:
	.cfi_startproc
	sub	sp, sp, #32
	stp	x29, x30, [sp, #16]
	add	x29, sp, #16
	.cfi_def_cfa w29, 16
	.cfi_offset w30, -8
	.cfi_offset w29, -16
	bl	__ZN4core3cmp6max_by17hd5efc6bdd50745d4E
	str	x0, [sp, #8]
	ldr	x0, [sp, #8]
	ldp	x29, x30, [sp, #16]
	add	sp, sp, #32
	ret
	.cfi_endproc

	.p2align	2
__ZN4core3cmp3max17h024707c6691d9f06E:
	.cfi_startproc
	sub	sp, sp, #32
	stp	x29, x30, [sp, #16]
	add	x29, sp, #16
	.cfi_def_cfa w29, 16
	.cfi_offset w30, -8
	.cfi_offset w29, -16
	bl	__ZN4core3cmp3Ord3max17h196083ca316afd80E
	str	x0, [sp, #8]
	ldr	x0, [sp, #8]
	ldp	x29, x30, [sp, #16]
	add	sp, sp, #32
	ret
	.cfi_endproc

	.p2align	2
__ZN4core3cmp5impls50_$LT$impl$u20$core..cmp..Ord$u20$for$u20$usize$GT$3cmp17hef0d7dd0d30aed5cE:
	.cfi_startproc
	sub	sp, sp, #32
	.cfi_def_cfa_offset 32
	str	x0, [sp, #8]
	str	x1, [sp, #16]
	ldr	x8, [x0]
	ldr	x9, [x1]
	subs	x8, x8, x9
	b.lo	LBB27_2
	ldr	x9, [sp, #16]
	ldr	x8, [sp, #8]
	ldr	x8, [x8]
	ldr	x9, [x9]
	subs	x8, x8, x9
	b.eq	LBB27_5
	b	LBB27_4
LBB27_2:
	mov	w8, #255
	strb	w8, [sp, #31]
LBB27_3:
	ldrb	w0, [sp, #31]
	add	sp, sp, #32
	ret
LBB27_4:
	mov	w8, #1
	strb	w8, [sp, #31]
	b	LBB27_6
LBB27_5:
	strb	wzr, [sp, #31]
LBB27_6:
	b	LBB27_3
	.cfi_endproc

	.p2align	2
__ZN4core3cmp6max_by17hd5efc6bdd50745d4E:
Lfunc_begin6:
	.cfi_startproc
	.cfi_personality 155, _rust_eh_personality
	.cfi_lsda 16, Lexception6
	sub	sp, sp, #96
	stp	x29, x30, [sp, #80]
	add	x29, sp, #80
	.cfi_def_cfa w29, 16
	.cfi_offset w30, -8
	.cfi_offset w29, -16
	add	x9, sp, #8
	str	x0, [sp, #8]
	add	x8, sp, #16
	str	x1, [sp, #16]
	sturb	wzr, [x29, #-17]
	sturb	wzr, [x29, #-18]
	mov	w10, #1
	sturb	w10, [x29, #-17]
	sturb	w10, [x29, #-18]
	str	x9, [sp, #40]
	str	x8, [sp, #48]
	ldr	x0, [sp, #40]
	ldr	x1, [sp, #48]
Ltmp40:
	bl	__ZN4core3ops8function6FnOnce9call_once17h3ee1fb87dc3ac83bE
	str	w0, [sp, #4]
Ltmp41:
	ldr	w8, [sp, #4]
	strb	w8, [sp, #39]
	ldrb	w8, [sp, #39]
	add	w8, w8, #1
	and	w8, w8, #0xff
	subs	w8, w8, #1
	b.ls	LBB28_7
	b	LBB28_8
LBB28_3:
	b	LBB28_5
LBB28_4:
Ltmp42:
	mov	x8, x1
	stur	x0, [x29, #-16]
	stur	w8, [x29, #-8]
	b	LBB28_3
LBB28_5:
	ldurb	w8, [x29, #-17]
	tbnz	w8, #0, LBB28_13
	b	LBB28_12
LBB28_7:
	sturb	wzr, [x29, #-18]
	ldr	x8, [sp, #16]
	str	x8, [sp, #24]
	b	LBB28_9
LBB28_8:
	sturb	wzr, [x29, #-17]
	ldr	x8, [sp, #8]
	str	x8, [sp, #24]
LBB28_9:
	ldurb	w8, [x29, #-18]
	tbnz	w8, #0, LBB28_11
LBB28_10:
	ldurb	w8, [x29, #-17]
	tbnz	w8, #0, LBB28_15
	b	LBB28_14
LBB28_11:
	b	LBB28_10
LBB28_12:
	ldur	x0, [x29, #-16]
	bl	__Unwind_Resume
LBB28_13:
	b	LBB28_12
LBB28_14:
	ldr	x0, [sp, #24]
	ldp	x29, x30, [sp, #80]
	add	sp, sp, #96
	ret
LBB28_15:
	b	LBB28_14
Lfunc_end6:
	.cfi_endproc
	.section	__TEXT,__gcc_except_tab
	.p2align	2
GCC_except_table28:
Lexception6:
	.byte	255
	.byte	255
	.byte	1
	.uleb128 Lcst_end6-Lcst_begin6
Lcst_begin6:
	.uleb128 Ltmp40-Lfunc_begin6
	.uleb128 Ltmp41-Ltmp40
	.uleb128 Ltmp42-Lfunc_begin6
	.byte	0
	.uleb128 Ltmp41-Lfunc_begin6
	.uleb128 Lfunc_end6-Ltmp41
	.byte	0
	.byte	0
Lcst_end6:
	.p2align	2

	.section	__TEXT,__text,regular,pure_instructions
	.p2align	2
__ZN4core3fmt10ArgumentV13new17h54d48a55652d18afE:
	.cfi_startproc
	sub	sp, sp, #64
	.cfi_def_cfa_offset 64
	str	x0, [sp, #16]
	str	x1, [sp, #48]
	ldr	x8, [sp, #48]
	str	x8, [sp, #24]
	ldr	x8, [sp, #16]
	str	x8, [sp, #56]
	ldr	x8, [sp, #56]
	str	x8, [sp, #8]
	ldr	x8, [sp, #24]
	ldr	x9, [sp, #8]
	str	x9, [sp, #32]
	str	x8, [sp, #40]
	ldr	x0, [sp, #32]
	ldr	x1, [sp, #40]
	add	sp, sp, #64
	ret
	.cfi_endproc

	.p2align	2
__ZN4core3fmt10ArgumentV13new17h8da7389da5d955d8E:
	.cfi_startproc
	sub	sp, sp, #64
	.cfi_def_cfa_offset 64
	str	x0, [sp, #16]
	str	x1, [sp, #48]
	ldr	x8, [sp, #48]
	str	x8, [sp, #24]
	ldr	x8, [sp, #16]
	str	x8, [sp, #56]
	ldr	x8, [sp, #56]
	str	x8, [sp, #8]
	ldr	x8, [sp, #24]
	ldr	x9, [sp, #8]
	str	x9, [sp, #32]
	str	x8, [sp, #40]
	ldr	x0, [sp, #32]
	ldr	x1, [sp, #40]
	add	sp, sp, #64
	ret
	.cfi_endproc

	.p2align	2
__ZN4core3fmt5Write9write_fmt17h635740e91515b4e7E:
	.cfi_startproc
	sub	sp, sp, #96
	stp	x29, x30, [sp, #80]
	add	x29, sp, #80
	.cfi_def_cfa w29, 16
	.cfi_offset w30, -8
	.cfi_offset w29, -16
	add	x8, sp, #24
	str	x8, [sp]
	str	x0, [sp, #24]
	add	x0, sp, #32
	str	x0, [sp, #8]
	mov	w8, #48
	mov	x2, x8
	bl	_memcpy
	ldr	x0, [sp]
	ldr	x2, [sp, #8]
	adrp	x1, l___unnamed_5@PAGE
	add	x1, x1, l___unnamed_5@PAGEOFF
	bl	__ZN4core3fmt5write17ha34752bcd39bca36E
	str	w0, [sp, #20]
	ldr	w8, [sp, #20]
	and	w0, w8, #0x1
	ldp	x29, x30, [sp, #80]
	add	sp, sp, #96
	ret
	.cfi_endproc

	.p2align	2
__ZN4core3fmt9Arguments6new_v117h86fba7a2a928f0e2E:
	.cfi_startproc
	sub	sp, sp, #80
	stp	x29, x30, [sp, #64]
	add	x29, sp, #64
	.cfi_def_cfa w29, 16
	.cfi_offset w30, -8
	.cfi_offset w29, -16
	str	x8, [sp]
	str	x0, [sp, #8]
	str	x1, [sp, #16]
	str	x2, [sp, #24]
	str	x3, [sp, #32]
	subs	x8, x1, x3
	b.lo	LBB32_2
	ldr	x8, [sp, #16]
	ldr	x9, [sp, #32]
	add	x9, x9, #1
	subs	x8, x8, x9
	cset	w8, hi
	and	w8, w8, #0x1
	sturb	w8, [x29, #-17]
	b	LBB32_3
LBB32_2:
	mov	w8, #1
	sturb	w8, [x29, #-17]
LBB32_3:
	ldurb	w8, [x29, #-17]
	tbnz	w8, #0, LBB32_5
	ldr	x8, [sp, #32]
	ldr	x11, [sp]
	ldr	x10, [sp, #24]
	ldr	x9, [sp, #16]
	ldr	x12, [sp, #8]
	stur	xzr, [x29, #-16]
	stur	xzr, [x29, #-8]
	stur	xzr, [x29, #-16]
	str	x12, [x11]
	str	x9, [x11, #8]
	add	x12, x11, #16
	ldur	x13, [x29, #-16]
	ldur	x9, [x29, #-8]
	str	x13, [x11, #16]
	str	x9, [x12, #8]
	add	x9, x11, #32
	str	x10, [x11, #32]
	str	x8, [x9, #8]
	ldp	x29, x30, [sp, #64]
	add	sp, sp, #80
	ret
LBB32_5:
	adrp	x0, l___unnamed_6@PAGE
	add	x0, x0, l___unnamed_6@PAGEOFF
	mov	w8, #12
	mov	x1, x8
	adrp	x2, l___unnamed_7@PAGE
	add	x2, x2, l___unnamed_7@PAGEOFF
	bl	__ZN4core9panicking5panic17hedf83d3b66d674c2E
	.cfi_endproc

	.p2align	2
__ZN4core3num23_$LT$impl$u20$usize$GT$11checked_add17h831a962ca9bb7bc4E:
	.cfi_startproc
	sub	sp, sp, #80
	.cfi_def_cfa_offset 80
	adds	x9, x0, x1
	cset	w8, hs
	ubfx	w8, w8, #0, #1
	str	x9, [sp, #64]
	strb	w8, [sp, #72]
	ldr	x9, [sp, #64]
	ldrb	w8, [sp, #72]
	str	x9, [sp, #48]
	mov	w9, #1
	and	w8, w8, w9
	strb	w8, [sp, #56]
	ldr	x8, [sp, #48]
	str	x8, [sp, #8]
	ldrb	w8, [sp, #56]
	and	w8, w8, #0x1
	str	w8, [sp, #20]
	ldr	w8, [sp, #20]
	and	w8, w8, #0x1
	strb	w8, [sp, #47]
	ldrb	w8, [sp, #47]
	str	w8, [sp, #4]
	ldr	w8, [sp, #4]
	tbnz	w8, #0, LBB33_4
	ldr	x8, [sp, #8]
	str	x8, [sp, #32]
	mov	w8, #1
	str	x8, [sp, #24]
	b	LBB33_5
LBB33_4:
	str	xzr, [sp, #24]
LBB33_5:
	ldr	x0, [sp, #24]
	ldr	x1, [sp, #32]
	add	sp, sp, #80
	ret
	.cfi_endproc

	.p2align	2
__ZN4core3num23_$LT$impl$u20$usize$GT$11checked_mul17hb9cc7adcd668ebb6E:
	.cfi_startproc
	sub	sp, sp, #80
	.cfi_def_cfa_offset 80
	umulh	x8, x0, x1
	mul	x10, x0, x1
	subs	x8, x8, #0
	cset	w8, ne
	mov	w9, #1
	and	w8, w8, w9
	str	x10, [sp, #64]
	strb	w8, [sp, #72]
	ldr	x10, [sp, #64]
	ldrb	w8, [sp, #72]
	str	x10, [sp, #48]
	and	w8, w8, w9
	strb	w8, [sp, #56]
	ldr	x8, [sp, #48]
	str	x8, [sp, #8]
	ldrb	w8, [sp, #56]
	and	w8, w8, #0x1
	str	w8, [sp, #20]
	ldr	w8, [sp, #20]
	and	w8, w8, #0x1
	strb	w8, [sp, #47]
	ldrb	w8, [sp, #47]
	str	w8, [sp, #4]
	ldr	w8, [sp, #4]
	tbnz	w8, #0, LBB34_4
	ldr	x8, [sp, #8]
	str	x8, [sp, #32]
	mov	w8, #1
	str	x8, [sp, #24]
	b	LBB34_5
LBB34_4:
	str	xzr, [sp, #24]
LBB34_5:
	ldr	x0, [sp, #24]
	ldr	x1, [sp, #32]
	add	sp, sp, #80
	ret
	.cfi_endproc

	.p2align	2
__ZN4core3num7nonzero12NonZeroUsize13new_unchecked17he42407d11afa76f5E:
	.cfi_startproc
	sub	sp, sp, #16
	.cfi_def_cfa_offset 16
	str	x0, [sp, #8]
	ldr	x0, [sp, #8]
	add	sp, sp, #16
	ret
	.cfi_endproc

	.p2align	2
__ZN4core3num7nonzero12NonZeroUsize3get17hb9dc19d1a9eb6b35E:
	.cfi_startproc
	ret
	.cfi_endproc

	.p2align	2
__ZN4core3ops8function6FnOnce40call_once$u7b$$u7b$vtable.shim$u7d$$u7d$17heea4fb4908dd35beE:
	.cfi_startproc
	sub	sp, sp, #32
	stp	x29, x30, [sp, #16]
	add	x29, sp, #16
	.cfi_def_cfa w29, 16
	.cfi_offset w30, -8
	.cfi_offset w29, -16
	ldr	x0, [x0]
	bl	__ZN4core3ops8function6FnOnce9call_once17h51201646171b06b4E
	str	w0, [sp, #8]
	ldr	w0, [sp, #8]
	ldp	x29, x30, [sp, #16]
	add	sp, sp, #32
	ret
	.cfi_endproc

	.p2align	2
__ZN4core3ops8function6FnOnce9call_once17h3ee1fb87dc3ac83bE:
	.cfi_startproc
	sub	sp, sp, #48
	stp	x29, x30, [sp, #32]
	add	x29, sp, #32
	.cfi_def_cfa w29, 16
	.cfi_offset w30, -8
	.cfi_offset w29, -16
	str	x0, [sp, #16]
	str	x1, [sp, #24]
	ldr	x0, [sp, #16]
	ldr	x1, [sp, #24]
	bl	__ZN4core3cmp5impls50_$LT$impl$u20$core..cmp..Ord$u20$for$u20$usize$GT$3cmp17hef0d7dd0d30aed5cE
	str	w0, [sp, #12]
	ldr	w0, [sp, #12]
	ldp	x29, x30, [sp, #32]
	add	sp, sp, #48
	ret
	.cfi_endproc

	.p2align	2
__ZN4core3ops8function6FnOnce9call_once17h51201646171b06b4E:
Lfunc_begin7:
	.cfi_startproc
	.cfi_personality 155, _rust_eh_personality
	.cfi_lsda 16, Lexception7
	sub	sp, sp, #64
	stp	x29, x30, [sp, #48]
	add	x29, sp, #48
	.cfi_def_cfa w29, 16
	.cfi_offset w30, -8
	.cfi_offset w29, -16
	mov	x8, x0
	add	x0, sp, #16
	str	x8, [sp, #16]
Ltmp48:
	bl	__ZN3std2rt10lang_start28_$u7b$$u7b$closure$u7d$$u7d$17h6e15b9395216f6f0E
	str	w0, [sp, #12]
Ltmp49:
	b	LBB39_5
LBB39_2:
	b	LBB39_4
LBB39_3:
Ltmp50:
	mov	x8, x1
	stur	x0, [x29, #-16]
	stur	w8, [x29, #-8]
	b	LBB39_2
LBB39_4:
	ldur	x0, [x29, #-16]
	bl	__Unwind_Resume
LBB39_5:
	ldr	w0, [sp, #12]
	ldp	x29, x30, [sp, #48]
	add	sp, sp, #64
	ret
Lfunc_end7:
	.cfi_endproc
	.section	__TEXT,__gcc_except_tab
	.p2align	2
GCC_except_table39:
Lexception7:
	.byte	255
	.byte	255
	.byte	1
	.uleb128 Lcst_end7-Lcst_begin7
Lcst_begin7:
	.uleb128 Ltmp48-Lfunc_begin7
	.uleb128 Ltmp49-Ltmp48
	.uleb128 Ltmp50-Lfunc_begin7
	.byte	0
	.uleb128 Ltmp49-Lfunc_begin7
	.uleb128 Lfunc_end7-Ltmp49
	.byte	0
	.byte	0
Lcst_end7:
	.p2align	2

	.section	__TEXT,__text,regular,pure_instructions
	.p2align	2
__ZN4core3ops8function6FnOnce9call_once17h77d32bb804faedceE:
	.cfi_startproc
	sub	sp, sp, #32
	stp	x29, x30, [sp, #16]
	add	x29, sp, #16
	.cfi_def_cfa w29, 16
	.cfi_offset w30, -8
	.cfi_offset w29, -16
	blr	x0
	ldp	x29, x30, [sp, #16]
	add	sp, sp, #32
	ret
	.cfi_endproc

	.p2align	2
__ZN4core3ptr20slice_from_raw_parts17h66795e991d3f3550E:
	.cfi_startproc
	sub	sp, sp, #48
	stp	x29, x30, [sp, #32]
	add	x29, sp, #32
	.cfi_def_cfa w29, 16
	.cfi_offset w30, -8
	.cfi_offset w29, -16
	str	x1, [sp, #16]
	bl	__ZN4core3ptr9const_ptr33_$LT$impl$u20$$BP$const$u20$T$GT$4cast17h7a922640704362a1E
	stur	x0, [x29, #-8]
	ldr	x1, [sp, #16]
	ldur	x0, [x29, #-8]
	bl	__ZN4core3ptr8metadata14from_raw_parts17ha4b658711ac747b8E
	str	x0, [sp]
	str	x1, [sp, #8]
	ldr	x1, [sp, #8]
	ldr	x0, [sp]
	ldp	x29, x30, [sp, #32]
	add	sp, sp, #48
	ret
	.cfi_endproc

	.p2align	2
__ZN4core3ptr24slice_from_raw_parts_mut17h706b99508678d760E:
	.cfi_startproc
	sub	sp, sp, #48
	stp	x29, x30, [sp, #32]
	add	x29, sp, #32
	.cfi_def_cfa w29, 16
	.cfi_offset w30, -8
	.cfi_offset w29, -16
	str	x0, [sp, #16]
	stur	x1, [x29, #-8]
	ldur	x1, [x29, #-8]
	ldr	x0, [sp, #16]
	bl	__ZN4core3ptr8metadata18from_raw_parts_mut17h8d49ea8883be38c0E
	str	x0, [sp]
	str	x1, [sp, #8]
	ldr	x1, [sp, #8]
	ldr	x0, [sp]
	ldp	x29, x30, [sp, #32]
	add	sp, sp, #48
	ret
	.cfi_endproc

	.p2align	2
__ZN4core3ptr37drop_in_place$LT$core..fmt..Error$GT$17h0bc1e6b26e1f557cE:
	.cfi_startproc
	ret
	.cfi_endproc

	.p2align	2
__ZN4core3ptr42drop_in_place$LT$alloc..string..String$GT$17heb60139a42813a57E:
	.cfi_startproc
	stp	x29, x30, [sp, #-16]!
	mov	x29, sp
	.cfi_def_cfa w29, 16
	.cfi_offset w30, -8
	.cfi_offset w29, -16
	bl	__ZN4core3ptr46drop_in_place$LT$alloc..vec..Vec$LT$u8$GT$$GT$17h03c26d1ee9b12326E
	ldp	x29, x30, [sp], #16
	ret
	.cfi_endproc

	.p2align	2
__ZN4core3ptr46drop_in_place$LT$alloc..vec..Vec$LT$u8$GT$$GT$17h03c26d1ee9b12326E:
Lfunc_begin8:
	.cfi_startproc
	.cfi_personality 155, _rust_eh_personality
	.cfi_lsda 16, Lexception8
	sub	sp, sp, #48
	stp	x29, x30, [sp, #32]
	add	x29, sp, #32
	.cfi_def_cfa w29, 16
	.cfi_offset w30, -8
	.cfi_offset w29, -16
	str	x0, [sp, #8]
Ltmp51:
	bl	__ZN70_$LT$alloc..vec..Vec$LT$T$C$A$GT$$u20$as$u20$core..ops..drop..Drop$GT$4drop17h1b07e420593862a7E
Ltmp52:
	ldr	x0, [sp, #8]
	bl	__ZN4core3ptr53drop_in_place$LT$alloc..raw_vec..RawVec$LT$u8$GT$$GT$17ha2c440e656ef0358E
	b	LBB45_5
LBB45_2:
	ldr	x0, [sp, #8]
	bl	__ZN4core3ptr53drop_in_place$LT$alloc..raw_vec..RawVec$LT$u8$GT$$GT$17ha2c440e656ef0358E
	b	LBB45_4
LBB45_3:
Ltmp53:
	mov	x8, x1
	str	x0, [sp, #16]
	str	w8, [sp, #24]
	b	LBB45_2
LBB45_4:
	ldr	x0, [sp, #16]
	bl	__Unwind_Resume
LBB45_5:
	ldp	x29, x30, [sp, #32]
	add	sp, sp, #48
	ret
Lfunc_end8:
	.cfi_endproc
	.section	__TEXT,__gcc_except_tab
	.p2align	2
GCC_except_table45:
Lexception8:
	.byte	255
	.byte	255
	.byte	1
	.uleb128 Lcst_end8-Lcst_begin8
Lcst_begin8:
	.uleb128 Ltmp51-Lfunc_begin8
	.uleb128 Ltmp52-Ltmp51
	.uleb128 Ltmp53-Lfunc_begin8
	.byte	0
	.uleb128 Ltmp52-Lfunc_begin8
	.uleb128 Lfunc_end8-Ltmp52
	.byte	0
	.byte	0
Lcst_end8:
	.p2align	2

	.section	__TEXT,__text,regular,pure_instructions
	.p2align	2
__ZN4core3ptr53drop_in_place$LT$alloc..raw_vec..RawVec$LT$u8$GT$$GT$17ha2c440e656ef0358E:
	.cfi_startproc
	stp	x29, x30, [sp, #-16]!
	mov	x29, sp
	.cfi_def_cfa w29, 16
	.cfi_offset w30, -8
	.cfi_offset w29, -16
	bl	__ZN77_$LT$alloc..raw_vec..RawVec$LT$T$C$A$GT$$u20$as$u20$core..ops..drop..Drop$GT$4drop17h218cadf8e0bd78bcE
	ldp	x29, x30, [sp], #16
	ret
	.cfi_endproc

	.p2align	2
__ZN4core3ptr53drop_in_place$LT$core..alloc..layout..LayoutError$GT$17h5f4a3d83f06ee97dE:
	.cfi_startproc
	ret
	.cfi_endproc

	.p2align	2
__ZN4core3ptr54drop_in_place$LT$$RF$mut$u20$alloc..string..String$GT$17h4c378456f04d395bE:
	.cfi_startproc
	ret
	.cfi_endproc

	.p2align	2
__ZN4core3ptr5write17hcfc7b9ae5e198474E:
	.cfi_startproc
	sub	sp, sp, #16
	.cfi_def_cfa_offset 16
	strb	w1, [sp, #15]
	ldrb	w8, [sp, #15]
	strb	w8, [x0]
	add	sp, sp, #16
	ret
	.cfi_endproc

	.p2align	2
__ZN4core3ptr6unique15Unique$LT$T$GT$13new_unchecked17h17763dfe2d4f0c8dE:
	.cfi_startproc
	sub	sp, sp, #16
	.cfi_def_cfa_offset 16
	str	x0, [sp, #8]
	ldr	x0, [sp, #8]
	add	sp, sp, #16
	ret
	.cfi_endproc

	.p2align	2
__ZN4core3ptr6unique15Unique$LT$T$GT$4cast17ha36a69b29377335fE:
	.cfi_startproc
	sub	sp, sp, #32
	stp	x29, x30, [sp, #16]
	add	x29, sp, #16
	.cfi_def_cfa w29, 16
	.cfi_offset w30, -8
	.cfi_offset w29, -16
	bl	__ZN4core3ptr6unique15Unique$LT$T$GT$6as_ptr17h08209de83d032ad2E
	str	x0, [sp, #8]
	ldr	x0, [sp, #8]
	bl	__ZN4core3ptr6unique15Unique$LT$T$GT$13new_unchecked17h17763dfe2d4f0c8dE
	str	x0, [sp]
	ldr	x0, [sp]
	ldp	x29, x30, [sp, #16]
	add	sp, sp, #32
	ret
	.cfi_endproc

	.p2align	2
__ZN4core3ptr6unique15Unique$LT$T$GT$6as_ptr17h08209de83d032ad2E:
	.cfi_startproc
	ret
	.cfi_endproc

	.p2align	2
__ZN4core3ptr7mut_ptr31_$LT$impl$u20$$BP$mut$u20$T$GT$13guaranteed_eq17h16b6f6a81e6b47d9E:
	.cfi_startproc
	sub	sp, sp, #16
	.cfi_def_cfa_offset 16
	subs	x8, x0, x1
	cset	w8, eq
	and	w8, w8, #0x1
	strb	w8, [sp, #15]
	ldrb	w8, [sp, #15]
	str	w8, [sp, #8]
	ldr	w8, [sp, #8]
	and	w0, w8, #0x1
	add	sp, sp, #16
	ret
	.cfi_endproc

	.p2align	2
__ZN4core3ptr7mut_ptr31_$LT$impl$u20$$BP$mut$u20$T$GT$7is_null17h1606a016660d05fcE:
	.cfi_startproc
	sub	sp, sp, #32
	stp	x29, x30, [sp, #16]
	add	x29, sp, #16
	.cfi_def_cfa w29, 16
	.cfi_offset w30, -8
	.cfi_offset w29, -16
	str	x0, [sp, #8]
	ldr	x0, [sp, #8]
	mov	x1, #0
	bl	__ZN4core3ptr7mut_ptr31_$LT$impl$u20$$BP$mut$u20$T$GT$13guaranteed_eq17h16b6f6a81e6b47d9E
	str	w0, [sp, #4]
	ldr	w8, [sp, #4]
	and	w0, w8, #0x1
	ldp	x29, x30, [sp, #16]
	add	sp, sp, #32
	ret
	.cfi_endproc

	.p2align	2
__ZN4core3ptr85drop_in_place$LT$std..rt..lang_start$LT$$LP$$RP$$GT$..$u7b$$u7b$closure$u7d$$u7d$$GT$17hc7f99bf783379448E:
	.cfi_startproc
	ret
	.cfi_endproc

	.p2align	2
__ZN4core3ptr8metadata14from_raw_parts17ha4b658711ac747b8E:
	.cfi_startproc
	sub	sp, sp, #32
	.cfi_def_cfa_offset 32
	str	x0, [sp, #16]
	str	x1, [sp, #24]
	ldr	x9, [sp, #16]
	ldr	x8, [sp, #24]
	str	x9, [sp]
	str	x8, [sp, #8]
	ldr	x0, [sp]
	ldr	x1, [sp, #8]
	add	sp, sp, #32
	ret
	.cfi_endproc

	.p2align	2
__ZN4core3ptr8metadata18from_raw_parts_mut17h8d49ea8883be38c0E:
	.cfi_startproc
	sub	sp, sp, #32
	.cfi_def_cfa_offset 32
	str	x0, [sp, #16]
	str	x1, [sp, #24]
	ldr	x9, [sp, #16]
	ldr	x8, [sp, #24]
	str	x9, [sp]
	str	x8, [sp, #8]
	ldr	x0, [sp]
	ldr	x1, [sp, #8]
	add	sp, sp, #32
	ret
	.cfi_endproc

	.p2align	2
__ZN4core3ptr8metadata8metadata17h210507cac2ea4ff7E:
	.cfi_startproc
	sub	sp, sp, #16
	.cfi_def_cfa_offset 16
	str	x0, [sp]
	str	x1, [sp, #8]
	ldr	x0, [sp, #8]
	add	sp, sp, #16
	ret
	.cfi_endproc

	.p2align	2
__ZN4core3ptr8non_null16NonNull$LT$T$GT$13new_unchecked17h86e34487677d5b2eE:
	.cfi_startproc
	sub	sp, sp, #16
	.cfi_def_cfa_offset 16
	str	x0, [sp, #8]
	ldr	x0, [sp, #8]
	add	sp, sp, #16
	ret
	.cfi_endproc

	.p2align	2
__ZN4core3ptr8non_null16NonNull$LT$T$GT$13new_unchecked17hc0729da7d9ff2220E:
	.cfi_startproc
	sub	sp, sp, #16
	.cfi_def_cfa_offset 16
	str	x0, [sp]
	str	x1, [sp, #8]
	ldr	x0, [sp]
	ldr	x1, [sp, #8]
	add	sp, sp, #16
	ret
	.cfi_endproc

	.p2align	2
__ZN4core3ptr8non_null16NonNull$LT$T$GT$3new17hac9ee2f1fb8938a7E:
	.cfi_startproc
	sub	sp, sp, #48
	stp	x29, x30, [sp, #32]
	add	x29, sp, #32
	.cfi_def_cfa w29, 16
	.cfi_offset w30, -8
	.cfi_offset w29, -16
	str	x0, [sp, #8]
	bl	__ZN4core3ptr7mut_ptr31_$LT$impl$u20$$BP$mut$u20$T$GT$7is_null17h1606a016660d05fcE
	stur	w0, [x29, #-12]
	ldur	w8, [x29, #-12]
	tbz	w8, #0, LBB61_3
	stur	xzr, [x29, #-8]
	stur	xzr, [x29, #-8]
	b	LBB61_5
LBB61_3:
	ldr	x0, [sp, #8]
	bl	__ZN4core3ptr8non_null16NonNull$LT$T$GT$13new_unchecked17h86e34487677d5b2eE
	str	x0, [sp]
	ldr	x8, [sp]
	stur	x8, [x29, #-8]
LBB61_5:
	ldur	x0, [x29, #-8]
	ldp	x29, x30, [sp, #32]
	add	sp, sp, #48
	ret
	.cfi_endproc

	.p2align	2
__ZN4core3ptr8non_null16NonNull$LT$T$GT$4cast17hdf02a406a1816ea3E:
	.cfi_startproc
	sub	sp, sp, #32
	stp	x29, x30, [sp, #16]
	add	x29, sp, #16
	.cfi_def_cfa w29, 16
	.cfi_offset w30, -8
	.cfi_offset w29, -16
	bl	__ZN4core3ptr8non_null16NonNull$LT$T$GT$6as_ptr17h7ee12c648cf57509E
	str	x0, [sp, #8]
	ldr	x0, [sp, #8]
	bl	__ZN4core3ptr8non_null16NonNull$LT$T$GT$13new_unchecked17h86e34487677d5b2eE
	str	x0, [sp]
	ldr	x0, [sp]
	ldp	x29, x30, [sp, #16]
	add	sp, sp, #32
	ret
	.cfi_endproc

	.p2align	2
__ZN4core3ptr8non_null16NonNull$LT$T$GT$6as_ptr17h44d8f2010561699aE:
	.cfi_startproc
	ret
	.cfi_endproc

	.p2align	2
__ZN4core3ptr8non_null16NonNull$LT$T$GT$6as_ptr17h7ee12c648cf57509E:
	.cfi_startproc
	ret
	.cfi_endproc

	.p2align	2
__ZN4core3ptr8non_null26NonNull$LT$$u5b$T$u5d$$GT$10as_mut_ptr17h282998646e0ddebeE:
	.cfi_startproc
	sub	sp, sp, #32
	stp	x29, x30, [sp, #16]
	add	x29, sp, #16
	.cfi_def_cfa w29, 16
	.cfi_offset w30, -8
	.cfi_offset w29, -16
	bl	__ZN4core3ptr8non_null26NonNull$LT$$u5b$T$u5d$$GT$15as_non_null_ptr17hca95ddeb9b35798dE
	str	x0, [sp, #8]
	ldr	x0, [sp, #8]
	bl	__ZN4core3ptr8non_null16NonNull$LT$T$GT$6as_ptr17h44d8f2010561699aE
	str	x0, [sp]
	ldr	x0, [sp]
	ldp	x29, x30, [sp, #16]
	add	sp, sp, #32
	ret
	.cfi_endproc

	.p2align	2
__ZN4core3ptr8non_null26NonNull$LT$$u5b$T$u5d$$GT$15as_non_null_ptr17hca95ddeb9b35798dE:
	.cfi_startproc
	sub	sp, sp, #32
	stp	x29, x30, [sp, #16]
	add	x29, sp, #16
	.cfi_def_cfa w29, 16
	.cfi_offset w30, -8
	.cfi_offset w29, -16
	bl	__ZN4core3ptr8non_null16NonNull$LT$T$GT$6as_ptr17h7ee12c648cf57509E
	str	x0, [sp, #8]
	ldr	x0, [sp, #8]
	bl	__ZN4core3ptr8non_null16NonNull$LT$T$GT$13new_unchecked17h86e34487677d5b2eE
	str	x0, [sp]
	ldr	x0, [sp]
	ldp	x29, x30, [sp, #16]
	add	sp, sp, #32
	ret
	.cfi_endproc

	.p2align	2
__ZN4core3ptr8non_null26NonNull$LT$$u5b$T$u5d$$GT$20slice_from_raw_parts17hb448bc3f4ebfbfb3E:
	.cfi_startproc
	sub	sp, sp, #64
	stp	x29, x30, [sp, #48]
	add	x29, sp, #48
	.cfi_def_cfa w29, 16
	.cfi_offset w30, -8
	.cfi_offset w29, -16
	stur	x1, [x29, #-16]
	bl	__ZN4core3ptr8non_null16NonNull$LT$T$GT$6as_ptr17h44d8f2010561699aE
	stur	x0, [x29, #-8]
	ldur	x1, [x29, #-16]
	ldur	x0, [x29, #-8]
	bl	__ZN4core3ptr24slice_from_raw_parts_mut17h706b99508678d760E
	str	x0, [sp, #16]
	str	x1, [sp, #24]
	ldr	x1, [sp, #24]
	ldr	x0, [sp, #16]
	bl	__ZN4core3ptr8non_null16NonNull$LT$T$GT$13new_unchecked17hc0729da7d9ff2220E
	str	x0, [sp]
	str	x1, [sp, #8]
	ldr	x1, [sp, #8]
	ldr	x0, [sp]
	ldp	x29, x30, [sp, #48]
	add	sp, sp, #64
	ret
	.cfi_endproc

	.p2align	2
__ZN4core3ptr8non_null26NonNull$LT$$u5b$T$u5d$$GT$3len17h3617b763dd5619d7E:
	.cfi_startproc
	sub	sp, sp, #48
	stp	x29, x30, [sp, #32]
	add	x29, sp, #32
	.cfi_def_cfa w29, 16
	.cfi_offset w30, -8
	.cfi_offset w29, -16
	bl	__ZN4core3ptr8non_null16NonNull$LT$T$GT$6as_ptr17h7ee12c648cf57509E
	str	x0, [sp, #16]
	stur	x1, [x29, #-8]
	ldur	x1, [x29, #-8]
	ldr	x0, [sp, #16]
	bl	__ZN4core3ptr8metadata8metadata17h210507cac2ea4ff7E
	str	x0, [sp, #8]
	ldr	x0, [sp, #8]
	ldp	x29, x30, [sp, #32]
	add	sp, sp, #48
	ret
	.cfi_endproc

	.p2align	2
__ZN4core3ptr9const_ptr33_$LT$impl$u20$$BP$const$u20$T$GT$13guaranteed_eq17h769b723793f2704bE:
	.cfi_startproc
	sub	sp, sp, #16
	.cfi_def_cfa_offset 16
	subs	x8, x0, x1
	cset	w8, eq
	and	w8, w8, #0x1
	strb	w8, [sp, #15]
	ldrb	w8, [sp, #15]
	str	w8, [sp, #8]
	ldr	w8, [sp, #8]
	and	w0, w8, #0x1
	add	sp, sp, #16
	ret
	.cfi_endproc

	.p2align	2
__ZN4core3ptr9const_ptr33_$LT$impl$u20$$BP$const$u20$T$GT$4cast17h7a922640704362a1E:
	.cfi_startproc
	ret
	.cfi_endproc

	.p2align	2
__ZN4core3ptr9const_ptr33_$LT$impl$u20$$BP$const$u20$T$GT$7is_null17h6de860be1244f059E:
	.cfi_startproc
	sub	sp, sp, #32
	stp	x29, x30, [sp, #16]
	add	x29, sp, #16
	.cfi_def_cfa w29, 16
	.cfi_offset w30, -8
	.cfi_offset w29, -16
	str	x0, [sp, #8]
	ldr	x0, [sp, #8]
	mov	x1, #0
	bl	__ZN4core3ptr9const_ptr33_$LT$impl$u20$$BP$const$u20$T$GT$13guaranteed_eq17h769b723793f2704bE
	str	w0, [sp, #4]
	ldr	w8, [sp, #4]
	and	w0, w8, #0x1
	ldp	x29, x30, [sp, #16]
	add	sp, sp, #32
	ret
	.cfi_endproc

	.p2align	2
__ZN4core3str8converts23from_utf8_unchecked_mut17h5b93116905ea415cE:
	.cfi_startproc
	ret
	.cfi_endproc

	.p2align	2
__ZN4core4char7methods15encode_utf8_raw17hc21ac9c6e26a9ae6E:
	.cfi_startproc
	sub	sp, sp, #352
	stp	x28, x27, [sp, #320]
	stp	x29, x30, [sp, #336]
	add	x29, sp, #336
	.cfi_def_cfa w29, 16
	.cfi_offset w30, -8
	.cfi_offset w29, -16
	.cfi_offset w27, -24
	.cfi_offset w28, -32
	sub	x8, x29, #56
	str	x8, [sp, #120]
	str	x1, [sp, #128]
	str	x2, [sp, #136]
	str	w0, [sp, #148]
	ldr	w0, [sp, #148]
	bl	__ZN4core4char7methods8len_utf817h7786277a92fc4ba8E
	str	x0, [sp, #152]
	ldr	x1, [sp, #136]
	ldr	x0, [sp, #128]
	ldr	x8, [sp, #152]
	str	x8, [sp, #96]
	adrp	x2, l___unnamed_8@PAGE
	add	x2, x2, l___unnamed_8@PAGEOFF
	bl	__ZN4core5slice5index77_$LT$impl$u20$core..ops..index..IndexMut$LT$I$GT$$u20$for$u20$$u5b$T$u5d$$GT$9index_mut17hfe83a4bdd37a3019E
	str	x0, [sp, #104]
	str	x1, [sp, #112]
	ldr	x8, [sp, #112]
	ldr	x10, [sp, #104]
	ldr	x11, [sp, #96]
	add	x9, sp, #160
	str	x11, [sp, #160]
	add	x9, x9, #8
	str	x10, [sp, #168]
	str	x8, [x9, #8]
	ldr	x8, [sp, #160]
	subs	x8, x8, #1
	str	x8, [sp, #88]
	subs	x8, x8, #3
	b.hi	LBB73_4
	ldr	x11, [sp, #88]
	adrp	x10, LJTI73_0@PAGE
	add	x10, x10, LJTI73_0@PAGEOFF
Ltmp63:
	adr	x8, Ltmp63
	ldrsw	x9, [x10, x11, lsl #2]
	add	x8, x8, x9
	br	x8
LBB73_4:
	ldr	x8, [sp, #120]
	ldr	x10, [sp, #136]
	sub	x9, x29, #32
	str	x10, [x8, #24]
	add	x10, sp, #152
	str	x10, [x8]
	add	x10, sp, #148
	str	x10, [x8, #8]
	str	x9, [x8, #16]
	ldr	x0, [x8]
	ldr	x9, [x8, #8]
	str	x9, [sp, #56]
	ldr	x8, [x8, #16]
	str	x8, [sp, #64]
	adrp	x1, __ZN4core3fmt3num3imp54_$LT$impl$u20$core..fmt..Display$u20$for$u20$usize$GT$3fmt17h8ba5f4a9695e6769E@GOTPAGE
	ldr	x1, [x1, __ZN4core3fmt3num3imp54_$LT$impl$u20$core..fmt..Display$u20$for$u20$usize$GT$3fmt17h8ba5f4a9695e6769E@GOTPAGEOFF]
	bl	__ZN4core3fmt10ArgumentV13new17h8da7389da5d955d8E
	str	x0, [sp, #72]
	str	x1, [sp, #80]
	b	LBB73_15
LBB73_5:
	ldr	x8, [sp, #176]
	subs	x8, x8, #1
	b.hs	LBB73_13
	b	LBB73_4
LBB73_6:
	ldr	x8, [sp, #176]
	subs	x8, x8, #2
	b.hs	LBB73_12
	b	LBB73_4
LBB73_7:
	ldr	x8, [sp, #176]
	subs	x8, x8, #3
	b.hs	LBB73_11
	b	LBB73_4
LBB73_8:
	ldr	x8, [sp, #176]
	subs	x8, x8, #4
	b.lo	LBB73_4
	ldr	x10, [sp, #168]
	ldr	x12, [sp, #168]
	ldr	x11, [sp, #168]
	ldr	x9, [sp, #168]
	ldr	w8, [sp, #148]
	lsr	w8, w8, #18
	and	w8, w8, #0x7
	orr	w8, w8, #0xfffffff0
	strb	w8, [x10]
	ldr	w8, [sp, #148]
	lsr	w8, w8, #12
	and	w8, w8, #0x3f
	mov	w10, #-128
	orr	w8, w8, #0xffffff80
	strb	w8, [x12, #1]
	ldr	w8, [sp, #148]
	lsr	w8, w8, #6
	and	w8, w8, #0x3f
	orr	w8, w8, w10
	strb	w8, [x11, #2]
	ldr	w8, [sp, #148]
	and	w8, w8, #0x3f
	orr	w8, w8, w10
	strb	w8, [x9, #3]
LBB73_10:
	ldr	x1, [sp, #136]
	ldr	x0, [sp, #128]
	ldr	x8, [sp, #120]
	ldr	x9, [sp, #152]
	str	x9, [x8, #32]
	ldr	x2, [x8, #32]
	adrp	x3, l___unnamed_9@PAGE
	add	x3, x3, l___unnamed_9@PAGEOFF
	bl	__ZN4core5slice5index77_$LT$impl$u20$core..ops..index..IndexMut$LT$I$GT$$u20$for$u20$$u5b$T$u5d$$GT$9index_mut17h205359eea46a7b48E
	str	x0, [sp, #40]
	str	x1, [sp, #48]
	b	LBB73_14
LBB73_11:
	ldr	x10, [sp, #168]
	ldr	x11, [sp, #168]
	ldr	x9, [sp, #168]
	ldr	w8, [sp, #148]
	lsr	w8, w8, #12
	and	w8, w8, #0xf
	orr	w8, w8, #0xffffffe0
	strb	w8, [x10]
	ldr	w8, [sp, #148]
	lsr	w8, w8, #6
	and	w8, w8, #0x3f
	mov	w10, #-128
	orr	w8, w8, #0xffffff80
	strb	w8, [x11, #1]
	ldr	w8, [sp, #148]
	and	w8, w8, #0x3f
	orr	w8, w8, w10
	strb	w8, [x9, #2]
	b	LBB73_10
LBB73_12:
	ldr	x10, [sp, #168]
	ldr	x9, [sp, #168]
	ldr	w8, [sp, #148]
	lsr	w8, w8, #6
	and	w8, w8, #0x1f
	orr	w8, w8, #0xffffffc0
	strb	w8, [x10]
	ldr	w8, [sp, #148]
	and	w8, w8, #0x3f
	orr	w8, w8, #0xffffff80
	strb	w8, [x9, #1]
	b	LBB73_10
LBB73_13:
	ldr	x9, [sp, #168]
	ldr	w8, [sp, #148]
	strb	w8, [x9]
	b	LBB73_10
LBB73_14:
	ldr	x1, [sp, #48]
	ldr	x0, [sp, #40]
	ldp	x29, x30, [sp, #336]
	ldp	x28, x27, [sp, #320]
	add	sp, sp, #352
	ret
LBB73_15:
	ldr	x0, [sp, #56]
	adrp	x1, __ZN4core3fmt3num53_$LT$impl$u20$core..fmt..UpperHex$u20$for$u20$u32$GT$3fmt17hbb4c2c265f26be6eE@GOTPAGE
	ldr	x1, [x1, __ZN4core3fmt3num53_$LT$impl$u20$core..fmt..UpperHex$u20$for$u20$u32$GT$3fmt17hbb4c2c265f26be6eE@GOTPAGEOFF]
	bl	__ZN4core3fmt10ArgumentV13new17h54d48a55652d18afE
	str	x0, [sp, #24]
	str	x1, [sp, #32]
	ldr	x0, [sp, #64]
	adrp	x1, __ZN4core3fmt3num3imp54_$LT$impl$u20$core..fmt..Display$u20$for$u20$usize$GT$3fmt17h8ba5f4a9695e6769E@GOTPAGE
	ldr	x1, [x1, __ZN4core3fmt3num3imp54_$LT$impl$u20$core..fmt..Display$u20$for$u20$usize$GT$3fmt17h8ba5f4a9695e6769E@GOTPAGEOFF]
	bl	__ZN4core3fmt10ArgumentV13new17h8da7389da5d955d8E
	str	x0, [sp, #8]
	str	x1, [sp, #16]
	ldr	x8, [sp, #16]
	ldr	x10, [sp, #8]
	ldr	x9, [sp, #32]
	ldr	x12, [sp, #24]
	ldr	x11, [sp, #80]
	ldr	x13, [sp, #72]
	sub	x2, x29, #104
	stur	x13, [x29, #-104]
	stur	x11, [x29, #-96]
	add	x11, x2, #16
	stur	x12, [x29, #-88]
	str	x9, [x11, #8]
	add	x9, x2, #32
	stur	x10, [x29, #-72]
	str	x8, [x9, #8]
	sub	x8, x29, #152
	adrp	x0, l___unnamed_10@PAGE
	add	x0, x0, l___unnamed_10@PAGEOFF
	mov	w9, #3
	mov	x3, x9
	mov	x1, x3
	bl	__ZN4core3fmt9Arguments6new_v117h86fba7a2a928f0e2E
	sub	x0, x29, #152
	adrp	x1, l___unnamed_11@PAGE
	add	x1, x1, l___unnamed_11@PAGEOFF
	bl	__ZN4core9panicking9panic_fmt17hf9e85df46ac02a7dE
	.cfi_endproc
	.section	__TEXT,__const
	.p2align	2
LJTI73_0:
	.long	LBB73_5-Ltmp63
	.long	LBB73_6-Ltmp63
	.long	LBB73_7-Ltmp63
	.long	LBB73_8-Ltmp63

	.section	__TEXT,__text,regular,pure_instructions
	.p2align	2
__ZN4core4char7methods22_$LT$impl$u20$char$GT$11encode_utf817h38086a59768f2d2fE:
	.cfi_startproc
	sub	sp, sp, #48
	stp	x29, x30, [sp, #32]
	add	x29, sp, #32
	.cfi_def_cfa w29, 16
	.cfi_offset w30, -8
	.cfi_offset w29, -16
	bl	__ZN4core4char7methods15encode_utf8_raw17hc21ac9c6e26a9ae6E
	str	x0, [sp, #16]
	stur	x1, [x29, #-8]
	ldur	x1, [x29, #-8]
	ldr	x0, [sp, #16]
	bl	__ZN4core3str8converts23from_utf8_unchecked_mut17h5b93116905ea415cE
	str	x0, [sp]
	str	x1, [sp, #8]
	ldr	x1, [sp, #8]
	ldr	x0, [sp]
	ldp	x29, x30, [sp, #32]
	add	sp, sp, #48
	ret
	.cfi_endproc

	.p2align	2
__ZN4core4char7methods22_$LT$impl$u20$char$GT$8len_utf817hd384964343a9273eE:
	.cfi_startproc
	sub	sp, sp, #32
	stp	x29, x30, [sp, #16]
	add	x29, sp, #16
	.cfi_def_cfa w29, 16
	.cfi_offset w30, -8
	.cfi_offset w29, -16
	bl	__ZN4core4char7methods8len_utf817h7786277a92fc4ba8E
	str	x0, [sp, #8]
	ldr	x0, [sp, #8]
	ldp	x29, x30, [sp, #16]
	add	sp, sp, #32
	ret
	.cfi_endproc

	.p2align	2
__ZN4core4char7methods8len_utf817h7786277a92fc4ba8E:
	.cfi_startproc
	sub	sp, sp, #16
	.cfi_def_cfa_offset 16
	str	w0, [sp, #4]
	subs	w8, w0, #128
	b.lo	LBB76_2
	ldr	w8, [sp, #4]
	subs	w8, w8, #2048
	b.lo	LBB76_5
	b	LBB76_4
LBB76_2:
	mov	w8, #1
	str	x8, [sp, #8]
LBB76_3:
	ldr	x0, [sp, #8]
	add	sp, sp, #16
	ret
LBB76_4:
	ldr	w8, [sp, #4]
	subs	w8, w8, #16, lsl #12
	b.lo	LBB76_8
	b	LBB76_7
LBB76_5:
	mov	w8, #2
	str	x8, [sp, #8]
LBB76_6:
	b	LBB76_3
LBB76_7:
	mov	w8, #4
	str	x8, [sp, #8]
	b	LBB76_9
LBB76_8:
	mov	w8, #3
	str	x8, [sp, #8]
LBB76_9:
	b	LBB76_6
	.cfi_endproc

	.p2align	2
__ZN4core4hint9black_box17hd934d13d8ba6342cE:
	.cfi_startproc
	; InlineAsm Start
	; InlineAsm End
	ret
	.cfi_endproc

	.p2align	2
__ZN4core5alloc6layout10size_align17hed6840b21c2f0be2E:
	.cfi_startproc
	sub	sp, sp, #16
	.cfi_def_cfa_offset 16
	mov	w8, #1
	str	x8, [sp]
	str	x8, [sp, #8]
	ldr	x0, [sp]
	ldr	x1, [sp, #8]
	add	sp, sp, #16
	ret
	.cfi_endproc

	.p2align	2
__ZN4core5alloc6layout6Layout12pad_to_align17h676dc5168188e083E:
	.cfi_startproc
	sub	sp, sp, #96
	stp	x29, x30, [sp, #80]
	add	x29, sp, #80
	.cfi_def_cfa w29, 16
	.cfi_offset w30, -8
	.cfi_offset w29, -16
	stur	x0, [x29, #-16]
	bl	__ZN4core5alloc6layout6Layout5align17hfaadab43d0a21165E
	stur	x0, [x29, #-8]
	ldur	x1, [x29, #-8]
	ldur	x0, [x29, #-16]
	bl	__ZN4core5alloc6layout6Layout18padding_needed_for17h4602934515dc6022E
	stur	x0, [x29, #-24]
	ldur	x0, [x29, #-16]
	bl	__ZN4core5alloc6layout6Layout4size17h46e7cef1e8f4cdfcE
	stur	x0, [x29, #-32]
	ldur	x0, [x29, #-16]
	ldur	x8, [x29, #-32]
	ldur	x9, [x29, #-24]
	add	x8, x8, x9
	str	x8, [sp, #32]
	bl	__ZN4core5alloc6layout6Layout5align17hfaadab43d0a21165E
	str	x0, [sp, #40]
	ldr	x1, [sp, #40]
	ldr	x0, [sp, #32]
	bl	__ZN4core5alloc6layout6Layout15from_size_align17ha8cd8c0a39f943b7E
	str	x0, [sp, #16]
	str	x1, [sp, #24]
	ldr	x1, [sp, #24]
	ldr	x0, [sp, #16]
	adrp	x2, l___unnamed_12@PAGE
	add	x2, x2, l___unnamed_12@PAGEOFF
	bl	__ZN4core6result19Result$LT$T$C$E$GT$6unwrap17hab6b6e8fdd68e379E
	str	x0, [sp]
	str	x1, [sp, #8]
	ldr	x1, [sp, #8]
	ldr	x0, [sp]
	ldp	x29, x30, [sp, #80]
	add	sp, sp, #96
	ret
	.cfi_endproc

	.p2align	2
__ZN4core5alloc6layout6Layout15from_size_align17ha8cd8c0a39f943b7E:
	.cfi_startproc
	sub	sp, sp, #80
	stp	x29, x30, [sp, #64]
	add	x29, sp, #64
	.cfi_def_cfa w29, 16
	.cfi_offset w30, -8
	.cfi_offset w29, -16
	str	x0, [sp, #16]
	str	x1, [sp, #24]
	fmov	d0, x1
	cnt.8b	v0, v0
	uaddlv.8b	h1, v0
	mov.16b	v0, v1
	fmov	w8, s0
	mov	w8, w8
	stur	x8, [x29, #-8]
	ldur	x8, [x29, #-8]
	stur	w8, [x29, #-28]
	ldur	w8, [x29, #-28]
	subs	w8, w8, #1
	b.ne	LBB80_3
	ldr	x8, [sp, #16]
	ldr	x9, [sp, #24]
	subs	x10, x9, #1
	mov	x9, #-1
	subs	x9, x9, x10
	subs	x8, x8, x9
	b.hi	LBB80_6
	b	LBB80_5
LBB80_3:
	stur	xzr, [x29, #-24]
	stur	xzr, [x29, #-16]
	stur	xzr, [x29, #-16]
LBB80_4:
	ldur	x0, [x29, #-24]
	ldur	x1, [x29, #-16]
	ldp	x29, x30, [sp, #64]
	add	sp, sp, #80
	ret
LBB80_5:
	ldr	x1, [sp, #24]
	ldr	x0, [sp, #16]
	bl	__ZN4core5alloc6layout6Layout25from_size_align_unchecked17hccfc446430dc22deE
	str	x0, [sp]
	str	x1, [sp, #8]
	b	LBB80_7
LBB80_6:
	stur	xzr, [x29, #-24]
	stur	xzr, [x29, #-16]
	stur	xzr, [x29, #-16]
	b	LBB80_4
LBB80_7:
	ldr	x8, [sp, #8]
	ldr	x9, [sp]
	stur	x9, [x29, #-24]
	stur	x8, [x29, #-16]
	b	LBB80_4
	.cfi_endproc

	.p2align	2
__ZN4core5alloc6layout6Layout18padding_needed_for17h4602934515dc6022E:
	.cfi_startproc
	sub	sp, sp, #64
	stp	x29, x30, [sp, #48]
	add	x29, sp, #48
	.cfi_def_cfa w29, 16
	.cfi_offset w30, -8
	.cfi_offset w29, -16
	stur	x1, [x29, #-16]
	bl	__ZN4core5alloc6layout6Layout4size17h46e7cef1e8f4cdfcE
	stur	x0, [x29, #-8]
	ldur	x8, [x29, #-8]
	ldur	x9, [x29, #-16]
	add	x8, x8, x9
	str	x8, [sp, #24]
	ldr	x8, [sp, #24]
	subs	x8, x8, #1
	str	x8, [sp, #16]
	ldur	x8, [x29, #-16]
	subs	x8, x8, #1
	str	x8, [sp, #8]
	ldur	x9, [x29, #-8]
	ldr	x8, [sp, #16]
	ldr	x10, [sp, #8]
	bic	x8, x8, x10
	subs	x8, x8, x9
	str	x8, [sp]
	ldr	x0, [sp]
	ldp	x29, x30, [sp, #48]
	add	sp, sp, #64
	ret
	.cfi_endproc

	.p2align	2
__ZN4core5alloc6layout6Layout25from_size_align_unchecked17hccfc446430dc22deE:
	.cfi_startproc
	sub	sp, sp, #48
	stp	x29, x30, [sp, #32]
	add	x29, sp, #32
	.cfi_def_cfa w29, 16
	.cfi_offset w30, -8
	.cfi_offset w29, -16
	str	x0, [sp]
	mov	x0, x1
	bl	__ZN4core3num7nonzero12NonZeroUsize13new_unchecked17he42407d11afa76f5E
	str	x0, [sp, #8]
	ldr	x8, [sp, #8]
	ldr	x9, [sp]
	str	x9, [sp, #16]
	str	x8, [sp, #24]
	ldr	x0, [sp, #16]
	ldr	x1, [sp, #24]
	ldp	x29, x30, [sp, #32]
	add	sp, sp, #48
	ret
	.cfi_endproc

	.p2align	2
__ZN4core5alloc6layout6Layout3new17h2840f38926fc8b03E:
	.cfi_startproc
	sub	sp, sp, #48
	stp	x29, x30, [sp, #32]
	add	x29, sp, #32
	.cfi_def_cfa w29, 16
	.cfi_offset w30, -8
	.cfi_offset w29, -16
	bl	__ZN4core5alloc6layout10size_align17hed6840b21c2f0be2E
	str	x0, [sp, #16]
	stur	x1, [x29, #-8]
	ldur	x1, [x29, #-8]
	ldr	x0, [sp, #16]
	bl	__ZN4core5alloc6layout6Layout25from_size_align_unchecked17hccfc446430dc22deE
	str	x0, [sp]
	str	x1, [sp, #8]
	ldr	x1, [sp, #8]
	ldr	x0, [sp]
	ldp	x29, x30, [sp, #32]
	add	sp, sp, #48
	ret
	.cfi_endproc

	.p2align	2
__ZN4core5alloc6layout6Layout4size17h46e7cef1e8f4cdfcE:
	.cfi_startproc
	ldr	x0, [x0]
	ret
	.cfi_endproc

	.p2align	2
__ZN4core5alloc6layout6Layout5align17hfaadab43d0a21165E:
	.cfi_startproc
	sub	sp, sp, #32
	stp	x29, x30, [sp, #16]
	add	x29, sp, #16
	.cfi_def_cfa w29, 16
	.cfi_offset w30, -8
	.cfi_offset w29, -16
	ldr	x0, [x0, #8]
	bl	__ZN4core3num7nonzero12NonZeroUsize3get17hb9dc19d1a9eb6b35E
	str	x0, [sp, #8]
	ldr	x0, [sp, #8]
	ldp	x29, x30, [sp, #16]
	add	sp, sp, #32
	ret
	.cfi_endproc

	.p2align	2
__ZN4core5alloc6layout6Layout5array17hc9e4d2ab7814d08dE:
	.cfi_startproc
	sub	sp, sp, #208
	stp	x29, x30, [sp, #192]
	add	x29, sp, #192
	.cfi_def_cfa w29, 16
	.cfi_offset w30, -8
	.cfi_offset w29, -16
	str	x0, [sp, #24]
	bl	__ZN4core5alloc6layout6Layout3new17h2840f38926fc8b03E
	stur	x0, [x29, #-48]
	stur	x1, [x29, #-40]
	ldr	x1, [sp, #24]
	sub	x8, x29, #72
	sub	x0, x29, #48
	bl	__ZN4core5alloc6layout6Layout6repeat17h280babdefb16d1feE
	add	x8, sp, #96
	sub	x0, x29, #72
	bl	__ZN79_$LT$core..result..Result$LT$T$C$E$GT$$u20$as$u20$core..ops..try_trait..Try$GT$6branch17hf382a49c60bfc077E
	ldr	x9, [sp, #104]
	mov	x8, #0
	subs	x9, x9, #0
	csinc	x8, x8, xzr, ne
	cbz	x8, LBB86_6
	b	LBB86_7
LBB86_6:
	ldr	q0, [sp, #96]
	stur	q0, [x29, #-32]
	ldr	x8, [sp, #112]
	stur	x8, [x29, #-16]
	ldur	q0, [x29, #-32]
	str	q0, [sp, #64]
	ldur	x8, [x29, #-16]
	str	x8, [sp, #80]
	ldr	x9, [sp, #64]
	ldr	x8, [sp, #72]
	add	x0, sp, #48
	str	x9, [sp, #48]
	str	x8, [sp, #56]
	bl	__ZN4core5alloc6layout6Layout12pad_to_align17h676dc5168188e083E
	str	x0, [sp, #8]
	str	x1, [sp, #16]
	b	LBB86_10
LBB86_7:
	bl	__ZN153_$LT$core..result..Result$LT$T$C$F$GT$$u20$as$u20$core..ops..try_trait..FromResidual$LT$core..result..Result$LT$core..convert..Infallible$C$E$GT$$GT$$GT$13from_residual17head3d6e14dbdfb16E
	str	x0, [sp, #32]
	str	x1, [sp, #40]
LBB86_9:
	ldr	x0, [sp, #32]
	ldr	x1, [sp, #40]
	ldp	x29, x30, [sp, #192]
	add	sp, sp, #208
	ret
LBB86_10:
	ldr	x8, [sp, #16]
	ldr	x9, [sp, #8]
	str	x9, [sp, #32]
	str	x8, [sp, #40]
	b	LBB86_9
	.cfi_endproc

	.p2align	2
__ZN4core5alloc6layout6Layout6repeat17h280babdefb16d1feE:
	.cfi_startproc
	sub	sp, sp, #176
	stp	x29, x30, [sp, #160]
	add	x29, sp, #160
	.cfi_def_cfa w29, 16
	.cfi_offset w30, -8
	.cfi_offset w29, -16
	stur	x8, [x29, #-72]
	stur	x0, [x29, #-64]
	stur	x1, [x29, #-56]
	bl	__ZN4core5alloc6layout6Layout4size17h46e7cef1e8f4cdfcE
	stur	x0, [x29, #-48]
	ldur	x0, [x29, #-64]
	bl	__ZN4core5alloc6layout6Layout5align17hfaadab43d0a21165E
	str	x0, [sp, #80]
	ldr	x1, [sp, #80]
	ldur	x0, [x29, #-64]
	bl	__ZN4core5alloc6layout6Layout18padding_needed_for17h4602934515dc6022E
	str	x0, [sp, #72]
	ldur	x1, [x29, #-56]
	ldur	x8, [x29, #-48]
	ldr	x9, [sp, #72]
	add	x0, x8, x9
	str	x0, [sp, #48]
	bl	__ZN4core3num23_$LT$impl$u20$usize$GT$11checked_mul17hb9cc7adcd668ebb6E
	str	x0, [sp, #56]
	str	x1, [sp, #64]
	ldr	x1, [sp, #64]
	ldr	x0, [sp, #56]
	bl	__ZN4core6option15Option$LT$T$GT$5ok_or17h6e0c575ac7714fd7E
	str	x0, [sp, #32]
	str	x1, [sp, #40]
	ldr	x1, [sp, #40]
	ldr	x0, [sp, #32]
	bl	__ZN79_$LT$core..result..Result$LT$T$C$E$GT$$u20$as$u20$core..ops..try_trait..Try$GT$6branch17hfd89f22dd6d980ffE
	stur	x0, [x29, #-40]
	stur	x1, [x29, #-32]
	ldur	x8, [x29, #-40]
	cbz	x8, LBB87_9
	b	LBB87_10
LBB87_9:
	ldur	x0, [x29, #-64]
	ldur	x8, [x29, #-32]
	str	x8, [sp, #16]
	bl	__ZN4core5alloc6layout6Layout5align17hfaadab43d0a21165E
	str	x0, [sp, #24]
	b	LBB87_13
LBB87_10:
	ldur	x8, [x29, #-72]
	bl	__ZN153_$LT$core..result..Result$LT$T$C$F$GT$$u20$as$u20$core..ops..try_trait..FromResidual$LT$core..result..Result$LT$core..convert..Infallible$C$E$GT$$GT$$GT$13from_residual17h6b96c8fa4afaf80bE
LBB87_12:
	ldp	x29, x30, [sp, #160]
	add	sp, sp, #176
	ret
LBB87_13:
	ldr	x1, [sp, #24]
	ldr	x0, [sp, #16]
	bl	__ZN4core5alloc6layout6Layout25from_size_align_unchecked17hccfc446430dc22deE
	str	x0, [sp]
	str	x1, [sp, #8]
	ldur	x9, [x29, #-72]
	ldr	x8, [sp, #48]
	ldr	x10, [sp, #8]
	ldr	x11, [sp]
	stur	x11, [x29, #-24]
	stur	x10, [x29, #-16]
	stur	x8, [x29, #-8]
	ldur	q0, [x29, #-24]
	str	q0, [x9]
	ldur	x8, [x29, #-8]
	str	x8, [x9, #16]
	b	LBB87_12
	.cfi_endproc

	.p2align	2
__ZN4core5alloc6layout6Layout8dangling17h6003f23f93e7a73fE:
	.cfi_startproc
	sub	sp, sp, #32
	stp	x29, x30, [sp, #16]
	add	x29, sp, #16
	.cfi_def_cfa w29, 16
	.cfi_offset w30, -8
	.cfi_offset w29, -16
	bl	__ZN4core5alloc6layout6Layout5align17hfaadab43d0a21165E
	str	x0, [sp, #8]
	ldr	x0, [sp, #8]
	bl	__ZN4core3ptr8non_null16NonNull$LT$T$GT$13new_unchecked17h86e34487677d5b2eE
	str	x0, [sp]
	ldr	x0, [sp]
	ldp	x29, x30, [sp, #16]
	add	sp, sp, #32
	ret
	.cfi_endproc

	.p2align	2
__ZN4core5clone5Clone5clone17hfe3df152d27b878eE:
	.cfi_startproc
	ret
	.cfi_endproc

	.p2align	2
__ZN4core5slice29_$LT$impl$u20$$u5b$T$u5d$$GT$4iter17hc1f5c4b01afc26c2E:
	.cfi_startproc
	sub	sp, sp, #32
	stp	x29, x30, [sp, #16]
	add	x29, sp, #16
	.cfi_def_cfa w29, 16
	.cfi_offset w30, -8
	.cfi_offset w29, -16
	bl	__ZN4core5slice4iter13Iter$LT$T$GT$3new17hba3f9674b10e6567E
	str	x0, [sp]
	str	x1, [sp, #8]
	ldr	x1, [sp, #8]
	ldr	x0, [sp]
	ldp	x29, x30, [sp, #16]
	add	sp, sp, #32
	ret
	.cfi_endproc

	.p2align	2
__ZN4core5slice29_$LT$impl$u20$$u5b$T$u5d$$GT$6as_ptr17hc36ebb3307d96e7aE:
	.cfi_startproc
	ret
	.cfi_endproc

	.p2align	2
__ZN4core5slice3raw14from_raw_parts17hee1f4e34a93f8f47E:
	.cfi_startproc
	sub	sp, sp, #32
	stp	x29, x30, [sp, #16]
	add	x29, sp, #16
	.cfi_def_cfa w29, 16
	.cfi_offset w30, -8
	.cfi_offset w29, -16
	bl	__ZN4core3ptr20slice_from_raw_parts17h66795e991d3f3550E
	str	x0, [sp]
	str	x1, [sp, #8]
	ldr	x1, [sp, #8]
	ldr	x0, [sp]
	ldp	x29, x30, [sp, #16]
	add	sp, sp, #32
	ret
	.cfi_endproc

	.p2align	2
__ZN4core5slice4iter13Iter$LT$T$GT$3new17hba3f9674b10e6567E:
	.cfi_startproc
	sub	sp, sp, #96
	stp	x29, x30, [sp, #80]
	add	x29, sp, #80
	.cfi_def_cfa w29, 16
	.cfi_offset w30, -8
	.cfi_offset w29, -16
	str	x1, [sp, #24]
	bl	__ZN4core5slice29_$LT$impl$u20$$u5b$T$u5d$$GT$6as_ptr17hc36ebb3307d96e7aE
	str	x0, [sp, #32]
	ldr	x0, [sp, #32]
	bl	__ZN4core3ptr9const_ptr33_$LT$impl$u20$$BP$const$u20$T$GT$7is_null17h6de860be1244f059E
	mov	w8, #1
	cbnz	x8, LBB93_6
	ldr	x8, [sp, #32]
	ldr	x9, [sp, #24]
	add	x8, x8, x9
	stur	x8, [x29, #-16]
	ldur	x8, [x29, #-16]
	str	x8, [sp, #16]
	b	LBB93_9
LBB93_6:
	ldr	x8, [sp, #32]
	ldr	x9, [sp, #24]
	add	x8, x8, x9
	stur	x8, [x29, #-8]
	ldur	x8, [x29, #-8]
	stur	x8, [x29, #-24]
LBB93_8:
	ldr	x0, [sp, #32]
	bl	__ZN4core3ptr8non_null16NonNull$LT$T$GT$13new_unchecked17h86e34487677d5b2eE
	str	x0, [sp, #8]
	b	LBB93_10
LBB93_9:
	ldr	x8, [sp, #16]
	stur	x8, [x29, #-24]
	b	LBB93_8
LBB93_10:
	ldr	x9, [sp, #8]
	ldur	x8, [x29, #-24]
	str	x9, [sp, #40]
	str	x8, [sp, #48]
	ldr	x0, [sp, #40]
	ldr	x1, [sp, #48]
	ldp	x29, x30, [sp, #80]
	add	sp, sp, #96
	ret
	.cfi_endproc

	.p2align	2
__ZN4core5slice4iter13Iter$LT$T$GT$8as_slice17h09a5704d5a66b5fbE:
	.cfi_startproc
	sub	sp, sp, #80
	stp	x29, x30, [sp, #64]
	add	x29, sp, #64
	.cfi_def_cfa w29, 16
	.cfi_offset w30, -8
	.cfi_offset w29, -16
	str	x0, [sp]
	ldr	x0, [x0]
	bl	__ZN4core3ptr8non_null16NonNull$LT$T$GT$6as_ptr17h44d8f2010561699aE
	mov	x1, x0
	ldr	x0, [sp]
	str	x1, [sp, #24]
	ldr	x0, [x0]
	str	x0, [sp, #8]
	bl	__ZN4core3ptr8non_null16NonNull$LT$T$GT$6as_ptr17h44d8f2010561699aE
	ldr	x8, [sp]
	ldr	x0, [sp, #8]
	ldr	x8, [x8, #8]
	str	x8, [sp, #16]
	bl	__ZN4core3ptr8non_null16NonNull$LT$T$GT$6as_ptr17h44d8f2010561699aE
	ldr	x8, [sp, #16]
	mov	x9, x0
	ldr	x0, [sp, #24]
	subs	x8, x8, x9
	stur	x8, [x29, #-8]
	ldur	x8, [x29, #-8]
	stur	x8, [x29, #-16]
	ldur	x1, [x29, #-16]
	bl	__ZN4core5slice3raw14from_raw_parts17hee1f4e34a93f8f47E
	str	x0, [sp, #32]
	stur	x1, [x29, #-24]
	ldur	x1, [x29, #-24]
	ldr	x0, [sp, #32]
	ldp	x29, x30, [sp, #64]
	add	sp, sp, #80
	ret
	.cfi_endproc

	.p2align	2
__ZN4core5slice5index77_$LT$impl$u20$core..ops..index..IndexMut$LT$I$GT$$u20$for$u20$$u5b$T$u5d$$GT$9index_mut17h205359eea46a7b48E:
	.cfi_startproc
	sub	sp, sp, #48
	stp	x29, x30, [sp, #32]
	add	x29, sp, #32
	.cfi_def_cfa w29, 16
	.cfi_offset w30, -8
	.cfi_offset w29, -16
	str	x0, [sp]
	mov	x0, x1
	ldr	x1, [sp]
	str	x0, [sp, #8]
	mov	x0, x2
	ldr	x2, [sp, #8]
	bl	__ZN108_$LT$core..ops..range..RangeTo$LT$usize$GT$$u20$as$u20$core..slice..index..SliceIndex$LT$$u5b$T$u5d$$GT$$GT$9index_mut17h8d0c703d7d647df7E
	str	x0, [sp, #16]
	stur	x1, [x29, #-8]
	ldur	x1, [x29, #-8]
	ldr	x0, [sp, #16]
	ldp	x29, x30, [sp, #32]
	add	sp, sp, #48
	ret
	.cfi_endproc

	.p2align	2
__ZN4core5slice5index77_$LT$impl$u20$core..ops..index..IndexMut$LT$I$GT$$u20$for$u20$$u5b$T$u5d$$GT$9index_mut17hfe83a4bdd37a3019E:
	.cfi_startproc
	sub	sp, sp, #32
	stp	x29, x30, [sp, #16]
	add	x29, sp, #16
	.cfi_def_cfa w29, 16
	.cfi_offset w30, -8
	.cfi_offset w29, -16
	bl	__ZN97_$LT$core..ops..range..RangeFull$u20$as$u20$core..slice..index..SliceIndex$LT$$u5b$T$u5d$$GT$$GT$9index_mut17h50ced70ee10a66c3E
	str	x0, [sp]
	str	x1, [sp, #8]
	ldr	x1, [sp, #8]
	ldr	x0, [sp]
	ldp	x29, x30, [sp, #16]
	add	sp, sp, #32
	ret
	.cfi_endproc

	.p2align	2
__ZN4core6option15Option$LT$T$GT$5ok_or17h46e01aed625f8755E:
	.cfi_startproc
	sub	sp, sp, #48
	.cfi_def_cfa_offset 48
	str	x8, [sp]
	str	x2, [sp, #8]
	str	x3, [sp, #16]
	str	x0, [sp, #24]
	str	x1, [sp, #32]
	strb	wzr, [sp, #47]
	mov	w8, #1
	strb	w8, [sp, #47]
	ldr	x8, [sp, #24]
	cbz	x8, LBB97_3
	b	LBB97_4
LBB97_3:
	ldr	x9, [sp]
	ldr	x8, [sp, #16]
	ldr	x11, [sp, #8]
	strb	wzr, [sp, #47]
	add	x10, x9, #8
	str	x11, [x9, #8]
	str	x8, [x10, #8]
	mov	w8, #1
	str	x8, [x9]
	b	LBB97_5
LBB97_4:
	ldr	x8, [sp]
	ldr	x9, [sp, #32]
	str	x9, [x8, #8]
	str	xzr, [x8]
LBB97_5:
	ldrb	w8, [sp, #47]
	tbnz	w8, #0, LBB97_7
LBB97_6:
	add	sp, sp, #48
	ret
LBB97_7:
	b	LBB97_6
	.cfi_endproc

	.p2align	2
__ZN4core6option15Option$LT$T$GT$5ok_or17h6e0c575ac7714fd7E:
	.cfi_startproc
	sub	sp, sp, #48
	.cfi_def_cfa_offset 48
	str	x0, [sp, #8]
	str	x1, [sp, #16]
	strb	wzr, [sp, #47]
	mov	w8, #1
	strb	w8, [sp, #47]
	ldr	x8, [sp, #8]
	cbz	x8, LBB98_3
	b	LBB98_4
LBB98_3:
	strb	wzr, [sp, #47]
	mov	w8, #1
	str	x8, [sp, #24]
	b	LBB98_5
LBB98_4:
	ldr	x8, [sp, #16]
	str	x8, [sp, #32]
	str	xzr, [sp, #24]
LBB98_5:
	ldrb	w8, [sp, #47]
	tbnz	w8, #0, LBB98_7
LBB98_6:
	ldr	x0, [sp, #24]
	ldr	x1, [sp, #32]
	add	sp, sp, #48
	ret
LBB98_7:
	b	LBB98_6
	.cfi_endproc

	.p2align	2
__ZN4core6option15Option$LT$T$GT$5ok_or17hcc3e27bde01a1131E:
	.cfi_startproc
	sub	sp, sp, #32
	.cfi_def_cfa_offset 32
	str	x0, [sp, #8]
	strb	wzr, [sp, #31]
	mov	w8, #1
	strb	w8, [sp, #31]
	ldr	x8, [sp, #8]
	subs	x8, x8, #0
	cset	x8, ne
	cbz	x8, LBB99_3
	b	LBB99_4
LBB99_3:
	strb	wzr, [sp, #31]
	str	xzr, [sp, #16]
	str	xzr, [sp, #16]
	b	LBB99_5
LBB99_4:
	ldr	x8, [sp, #8]
	str	x8, [sp, #16]
LBB99_5:
	ldrb	w8, [sp, #31]
	tbnz	w8, #0, LBB99_7
LBB99_6:
	ldr	x0, [sp, #16]
	add	sp, sp, #32
	ret
LBB99_7:
	b	LBB99_6
	.cfi_endproc

	.p2align	2
__ZN4core6result19Result$LT$T$C$E$GT$6expect17hd8db540ed61674beE:
Lfunc_begin9:
	.cfi_startproc
	.cfi_personality 155, _rust_eh_personality
	.cfi_lsda 16, Lexception9
	sub	sp, sp, #64
	stp	x29, x30, [sp, #48]
	add	x29, sp, #48
	.cfi_def_cfa w29, 16
	.cfi_offset w30, -8
	.cfi_offset w29, -16
	str	x1, [sp]
	str	x2, [sp, #8]
	str	x3, [sp, #16]
	and	w8, w0, #0x1
	sturb	w8, [x29, #-18]
	ldurb	w8, [x29, #-18]
	tbz	w8, #0, LBB100_3
	b	LBB100_4
LBB100_3:
	ldp	x29, x30, [sp, #48]
	add	sp, sp, #64
	ret
LBB100_4:
Ltmp69:
	ldr	x4, [sp, #16]
	ldr	x1, [sp, #8]
	ldr	x0, [sp]
	sub	x2, x29, #17
	adrp	x3, l___unnamed_13@PAGE
	add	x3, x3, l___unnamed_13@PAGEOFF
	bl	__ZN4core6result13unwrap_failed17h3b4d980f8618ad59E
Ltmp70:
LBB100_6:
	b	LBB100_8
LBB100_7:
Ltmp71:
	mov	x8, x1
	stur	x0, [x29, #-16]
	stur	w8, [x29, #-8]
	b	LBB100_6
LBB100_8:
	ldur	x0, [x29, #-16]
	bl	__Unwind_Resume
Lfunc_end9:
	.cfi_endproc
	.section	__TEXT,__gcc_except_tab
	.p2align	2
GCC_except_table100:
Lexception9:
	.byte	255
	.byte	255
	.byte	1
	.uleb128 Lcst_end9-Lcst_begin9
Lcst_begin9:
	.uleb128 Ltmp69-Lfunc_begin9
	.uleb128 Ltmp70-Ltmp69
	.uleb128 Ltmp71-Lfunc_begin9
	.byte	0
	.uleb128 Ltmp70-Lfunc_begin9
	.uleb128 Lfunc_end9-Ltmp70
	.byte	0
	.byte	0
Lcst_end9:
	.p2align	2

	.section	__TEXT,__text,regular,pure_instructions
	.p2align	2
__ZN4core6result19Result$LT$T$C$E$GT$6unwrap17hab6b6e8fdd68e379E:
Lfunc_begin10:
	.cfi_startproc
	.cfi_personality 155, _rust_eh_personality
	.cfi_lsda 16, Lexception10
	sub	sp, sp, #64
	stp	x29, x30, [sp, #48]
	add	x29, sp, #48
	.cfi_def_cfa w29, 16
	.cfi_offset w30, -8
	.cfi_offset w29, -16
	str	x2, [sp]
	str	x0, [sp, #8]
	str	x1, [sp, #16]
	ldr	x9, [sp, #16]
	mov	x8, #0
	subs	x9, x9, #0
	csinc	x8, x8, xzr, ne
	cbz	x8, LBB101_3
	b	LBB101_4
LBB101_3:
	ldr	x0, [sp, #8]
	ldr	x1, [sp, #16]
	ldp	x29, x30, [sp, #48]
	add	sp, sp, #64
	ret
LBB101_4:
Ltmp72:
	ldr	x4, [sp]
	adrp	x0, l___unnamed_14@PAGE
	add	x0, x0, l___unnamed_14@PAGEOFF
	mov	w8, #43
	mov	x1, x8
	sub	x2, x29, #17
	adrp	x3, l___unnamed_15@PAGE
	add	x3, x3, l___unnamed_15@PAGEOFF
	bl	__ZN4core6result13unwrap_failed17h3b4d980f8618ad59E
Ltmp73:
LBB101_6:
	b	LBB101_8
LBB101_7:
Ltmp74:
	mov	x8, x1
	stur	x0, [x29, #-16]
	stur	w8, [x29, #-8]
	b	LBB101_6
LBB101_8:
	ldur	x0, [x29, #-16]
	bl	__Unwind_Resume
Lfunc_end10:
	.cfi_endproc
	.section	__TEXT,__gcc_except_tab
	.p2align	2
GCC_except_table101:
Lexception10:
	.byte	255
	.byte	255
	.byte	1
	.uleb128 Lcst_end10-Lcst_begin10
Lcst_begin10:
	.uleb128 Ltmp72-Lfunc_begin10
	.uleb128 Ltmp73-Ltmp72
	.uleb128 Ltmp74-Lfunc_begin10
	.byte	0
	.uleb128 Ltmp73-Lfunc_begin10
	.uleb128 Lfunc_end10-Ltmp73
	.byte	0
	.byte	0
Lcst_end10:
	.p2align	2

	.section	__TEXT,__text,regular,pure_instructions
	.p2align	2
__ZN4core6result19Result$LT$T$C$E$GT$7map_err17h046d00967c401c51E:
	.cfi_startproc
	sub	sp, sp, #80
	stp	x29, x30, [sp, #64]
	add	x29, sp, #64
	.cfi_def_cfa w29, 16
	.cfi_offset w30, -8
	.cfi_offset w29, -16
	str	x8, [sp, #24]
	str	x2, [sp, #32]
	stur	x0, [x29, #-24]
	stur	x1, [x29, #-16]
	sturb	wzr, [x29, #-1]
	mov	w8, #1
	sturb	w8, [x29, #-1]
	ldur	x9, [x29, #-24]
	mov	x8, #0
	subs	x9, x9, #0
	csinc	x8, x8, xzr, ne
	cbz	x8, LBB102_3
	b	LBB102_4
LBB102_3:
	ldr	x8, [sp, #24]
	ldur	x11, [x29, #-24]
	ldur	x9, [x29, #-16]
	add	x10, x8, #8
	str	x11, [x8, #8]
	str	x9, [x10, #8]
	str	xzr, [x8]
	b	LBB102_6
LBB102_4:
	ldr	x0, [sp, #32]
	sturb	wzr, [x29, #-1]
	bl	__ZN5alloc7raw_vec11finish_grow28_$u7b$$u7b$closure$u7d$$u7d$17h739f13938010e8c7E
	str	x0, [sp, #8]
	str	x1, [sp, #16]
	ldr	x9, [sp, #24]
	ldr	x8, [sp, #16]
	ldr	x11, [sp, #8]
	add	x10, x9, #8
	str	x11, [x9, #8]
	str	x8, [x10, #8]
	mov	w8, #1
	str	x8, [x9]
LBB102_6:
	ldurb	w8, [x29, #-1]
	tbnz	w8, #0, LBB102_8
LBB102_7:
	ldp	x29, x30, [sp, #64]
	add	sp, sp, #80
	ret
LBB102_8:
	b	LBB102_7
	.cfi_endproc

	.p2align	2
__ZN4core6result19Result$LT$T$C$E$GT$7map_err17h4ac70ccd7cf5ea09E:
	.cfi_startproc
	sub	sp, sp, #80
	stp	x29, x30, [sp, #64]
	add	x29, sp, #64
	.cfi_def_cfa w29, 16
	.cfi_offset w30, -8
	.cfi_offset w29, -16
	str	x8, [sp, #24]
	str	x0, [sp, #32]
	sturb	wzr, [x29, #-1]
	mov	w8, #1
	sturb	w8, [x29, #-1]
	ldr	x8, [x0]
	cbz	x8, LBB103_3
	b	LBB103_4
LBB103_3:
	ldr	x8, [sp, #24]
	str	xzr, [x8]
	b	LBB103_6
LBB103_4:
	ldr	x9, [sp, #32]
	add	x8, x9, #8
	ldr	x9, [x9, #8]
	ldr	x8, [x8, #8]
	sturb	wzr, [x29, #-1]
	stur	x9, [x29, #-24]
	stur	x8, [x29, #-16]
	ldur	x0, [x29, #-24]
	ldur	x1, [x29, #-16]
	bl	__ZN5alloc7raw_vec14handle_reserve28_$u7b$$u7b$closure$u7d$$u7d$17h7a7b6a472de58095E
	str	x0, [sp, #8]
	str	x1, [sp, #16]
	ldr	x9, [sp, #24]
	ldr	x8, [sp, #16]
	ldr	x11, [sp, #8]
	add	x10, x9, #8
	str	x11, [x9, #8]
	str	x8, [x10, #8]
	mov	w8, #1
	str	x8, [x9]
LBB103_6:
	ldurb	w8, [x29, #-1]
	tbnz	w8, #0, LBB103_8
LBB103_7:
	ldp	x29, x30, [sp, #64]
	add	sp, sp, #80
	ret
LBB103_8:
	b	LBB103_7
	.cfi_endproc

	.p2align	2
__ZN4core6result19Result$LT$T$C$E$GT$7map_err17hb2b30a7414735167E:
	.cfi_startproc
	sub	sp, sp, #64
	stp	x29, x30, [sp, #48]
	add	x29, sp, #48
	.cfi_def_cfa w29, 16
	.cfi_offset w30, -8
	.cfi_offset w29, -16
	str	x8, [sp, #16]
	str	x0, [sp, #24]
	str	x1, [sp, #32]
	sturb	wzr, [x29, #-1]
	mov	w8, #1
	sturb	w8, [x29, #-1]
	ldr	x9, [sp, #32]
	mov	x8, #0
	subs	x9, x9, #0
	csinc	x8, x8, xzr, ne
	cbz	x8, LBB104_3
	b	LBB104_4
LBB104_3:
	ldr	x8, [sp, #16]
	ldr	x11, [sp, #24]
	ldr	x9, [sp, #32]
	add	x10, x8, #8
	str	x11, [x8, #8]
	str	x9, [x10, #8]
	str	xzr, [x8]
	b	LBB104_6
LBB104_4:
	sturb	wzr, [x29, #-1]
	bl	__ZN5alloc7raw_vec11finish_grow28_$u7b$$u7b$closure$u7d$$u7d$17hc432e1320af33368E
	str	x0, [sp]
	str	x1, [sp, #8]
	ldr	x9, [sp, #16]
	ldr	x8, [sp, #8]
	ldr	x11, [sp]
	add	x10, x9, #8
	str	x11, [x9, #8]
	str	x8, [x10, #8]
	mov	w8, #1
	str	x8, [x9]
LBB104_6:
	ldurb	w8, [x29, #-1]
	tbnz	w8, #0, LBB104_8
LBB104_7:
	ldp	x29, x30, [sp, #48]
	add	sp, sp, #64
	ret
LBB104_8:
	b	LBB104_7
	.cfi_endproc

	.p2align	2
__ZN50_$LT$$RF$mut$u20$W$u20$as$u20$core..fmt..Write$GT$10write_char17h71ed5888404adcb9E:
	.cfi_startproc
	sub	sp, sp, #32
	stp	x29, x30, [sp, #16]
	add	x29, sp, #16
	.cfi_def_cfa w29, 16
	.cfi_offset w30, -8
	.cfi_offset w29, -16
	ldr	x0, [x0]
	bl	__ZN58_$LT$alloc..string..String$u20$as$u20$core..fmt..Write$GT$10write_char17hb6e5d54f07cbfc04E
	stur	w0, [x29, #-4]
	ldur	w8, [x29, #-4]
	and	w0, w8, #0x1
	ldp	x29, x30, [sp, #16]
	add	sp, sp, #32
	ret
	.cfi_endproc

	.p2align	2
__ZN50_$LT$$RF$mut$u20$W$u20$as$u20$core..fmt..Write$GT$9write_fmt17h097057e47b45041dE:
	.cfi_startproc
	sub	sp, sp, #96
	stp	x29, x30, [sp, #80]
	add	x29, sp, #80
	.cfi_def_cfa w29, 16
	.cfi_offset w30, -8
	.cfi_offset w29, -16
	ldr	x8, [x0]
	str	x8, [sp, #8]
	add	x0, sp, #32
	str	x0, [sp, #16]
	mov	w8, #48
	mov	x2, x8
	bl	_memcpy
	ldr	x0, [sp, #8]
	ldr	x1, [sp, #16]
	bl	__ZN4core3fmt5Write9write_fmt17h635740e91515b4e7E
	str	w0, [sp, #28]
	ldr	w8, [sp, #28]
	and	w0, w8, #0x1
	ldp	x29, x30, [sp, #80]
	add	sp, sp, #96
	ret
	.cfi_endproc

	.p2align	2
__ZN50_$LT$$RF$mut$u20$W$u20$as$u20$core..fmt..Write$GT$9write_str17h8362ca3bd7d1f6a1E:
	.cfi_startproc
	sub	sp, sp, #32
	stp	x29, x30, [sp, #16]
	add	x29, sp, #16
	.cfi_def_cfa w29, 16
	.cfi_offset w30, -8
	.cfi_offset w29, -16
	ldr	x0, [x0]
	bl	__ZN58_$LT$alloc..string..String$u20$as$u20$core..fmt..Write$GT$9write_str17hd9a85839a467144fE
	stur	w0, [x29, #-4]
	ldur	w8, [x29, #-4]
	and	w0, w8, #0x1
	ldp	x29, x30, [sp, #16]
	add	sp, sp, #32
	ret
	.cfi_endproc

	.p2align	2
__ZN50_$LT$T$u20$as$u20$core..convert..From$LT$T$GT$$GT$4from17h0369ca4b3245990cE:
	.cfi_startproc
	ret
	.cfi_endproc

	.p2align	2
__ZN50_$LT$T$u20$as$u20$core..convert..From$LT$T$GT$$GT$4from17h118f433ef2315747E:
	.cfi_startproc
	ret
	.cfi_endproc

	.p2align	2
__ZN50_$LT$T$u20$as$u20$core..convert..From$LT$T$GT$$GT$4from17hbef8cfa4394127e0E:
	.cfi_startproc
	ret
	.cfi_endproc

	.p2align	2
__ZN50_$LT$T$u20$as$u20$core..convert..Into$LT$U$GT$$GT$4into17h432bd096ecda9539E:
	.cfi_startproc
	sub	sp, sp, #32
	stp	x29, x30, [sp, #16]
	add	x29, sp, #16
	.cfi_def_cfa w29, 16
	.cfi_offset w30, -8
	.cfi_offset w29, -16
	bl	__ZN119_$LT$core..ptr..non_null..NonNull$LT$T$GT$$u20$as$u20$core..convert..From$LT$core..ptr..unique..Unique$LT$T$GT$$GT$$GT$4from17h47198fd5c46fd6d7E
	str	x0, [sp, #8]
	ldr	x0, [sp, #8]
	ldp	x29, x30, [sp, #16]
	add	sp, sp, #32
	ret
	.cfi_endproc

	.p2align	2
__ZN50_$LT$T$u20$as$u20$core..convert..Into$LT$U$GT$$GT$4into17he5aaa975ae640824E:
	.cfi_startproc
	sub	sp, sp, #32
	stp	x29, x30, [sp, #16]
	add	x29, sp, #16
	.cfi_def_cfa w29, 16
	.cfi_offset w30, -8
	.cfi_offset w29, -16
	bl	__ZN122_$LT$alloc..collections..TryReserveError$u20$as$u20$core..convert..From$LT$alloc..collections..TryReserveErrorKind$GT$$GT$4from17h3cdb815b564b75eaE
	str	x0, [sp]
	str	x1, [sp, #8]
	ldr	x1, [sp, #8]
	ldr	x0, [sp]
	ldp	x29, x30, [sp, #16]
	add	sp, sp, #32
	ret
	.cfi_endproc

	.p2align	2
__ZN54_$LT$$LP$$RP$$u20$as$u20$std..process..Termination$GT$6report17h780f3d6f90030c7bE:
	.cfi_startproc
	sub	sp, sp, #32
	stp	x29, x30, [sp, #16]
	add	x29, sp, #16
	.cfi_def_cfa w29, 16
	.cfi_offset w30, -8
	.cfi_offset w29, -16
	mov	w0, #0
	bl	__ZN68_$LT$std..process..ExitCode$u20$as$u20$std..process..Termination$GT$6report17hec5a6d11e44dc517E
	stur	w0, [x29, #-4]
	ldur	w0, [x29, #-4]
	ldp	x29, x30, [sp, #16]
	add	sp, sp, #32
	ret
	.cfi_endproc

	.p2align	2
__ZN58_$LT$alloc..string..String$u20$as$u20$core..fmt..Write$GT$10write_char17hb6e5d54f07cbfc04E:
	.cfi_startproc
	sub	sp, sp, #32
	stp	x29, x30, [sp, #16]
	add	x29, sp, #16
	.cfi_def_cfa w29, 16
	.cfi_offset w30, -8
	.cfi_offset w29, -16
	bl	__ZN5alloc6string6String4push17h629996ae46bf5cbfE
	sturb	wzr, [x29, #-1]
	ldurb	w8, [x29, #-1]
	and	w0, w8, #0x1
	ldp	x29, x30, [sp, #16]
	add	sp, sp, #32
	ret
	.cfi_endproc

	.p2align	2
__ZN58_$LT$alloc..string..String$u20$as$u20$core..fmt..Write$GT$9write_str17hd9a85839a467144fE:
	.cfi_startproc
	sub	sp, sp, #32
	stp	x29, x30, [sp, #16]
	add	x29, sp, #16
	.cfi_def_cfa w29, 16
	.cfi_offset w30, -8
	.cfi_offset w29, -16
	bl	__ZN5alloc6string6String8push_str17hf65c654e245a30feE
	sturb	wzr, [x29, #-1]
	ldurb	w8, [x29, #-1]
	and	w0, w8, #0x1
	ldp	x29, x30, [sp, #16]
	add	sp, sp, #32
	ret
	.cfi_endproc

	.p2align	2
__ZN5alloc11collections15TryReserveError4kind17h23c14d8f53c61ef9E:
	.cfi_startproc
	sub	sp, sp, #32
	stp	x29, x30, [sp, #16]
	add	x29, sp, #16
	.cfi_def_cfa w29, 16
	.cfi_offset w30, -8
	.cfi_offset w29, -16
	bl	__ZN78_$LT$alloc..collections..TryReserveErrorKind$u20$as$u20$core..clone..Clone$GT$5clone17hf793e943f15baccfE
	str	x0, [sp]
	str	x1, [sp, #8]
	ldr	x1, [sp, #8]
	ldr	x0, [sp]
	ldp	x29, x30, [sp, #16]
	add	sp, sp, #32
	ret
	.cfi_endproc

	.p2align	2
__ZN5alloc3vec12Vec$LT$T$GT$3new17hdc9485e9dc9d8fffE:
	.cfi_startproc
	adrp	x10, l___unnamed_16@PAGE
	adrp	x9, l___unnamed_16@PAGE
	add	x9, x9, l___unnamed_16@PAGEOFF
	ldr	x10, [x10, l___unnamed_16@PAGEOFF]
	ldr	x9, [x9, #8]
	str	x10, [x8]
	str	x9, [x8, #8]
	str	xzr, [x8, #16]
	ret
	.cfi_endproc

	.p2align	2
__ZN5alloc3vec16Vec$LT$T$C$A$GT$10as_mut_ptr17hfcc89accbe884ca3E:
	.cfi_startproc
	sub	sp, sp, #32
	stp	x29, x30, [sp, #16]
	add	x29, sp, #16
	.cfi_def_cfa w29, 16
	.cfi_offset w30, -8
	.cfi_offset w29, -16
	bl	__ZN5alloc7raw_vec19RawVec$LT$T$C$A$GT$3ptr17h1e66dcd602ecd829E
	str	x0, [sp, #8]
	ldr	x0, [sp, #8]
	bl	__ZN4core3ptr7mut_ptr31_$LT$impl$u20$$BP$mut$u20$T$GT$7is_null17h1606a016660d05fcE
	ldr	x0, [sp, #8]
	ldp	x29, x30, [sp, #16]
	add	sp, sp, #32
	ret
	.cfi_endproc

	.p2align	2
__ZN5alloc3vec16Vec$LT$T$C$A$GT$15append_elements17hbbee64e8aecf4414E:
	.cfi_startproc
	sub	sp, sp, #80
	stp	x29, x30, [sp, #64]
	add	x29, sp, #64
	.cfi_def_cfa w29, 16
	.cfi_offset w30, -8
	.cfi_offset w29, -16
	str	x0, [sp, #32]
	stur	x1, [x29, #-24]
	mov	x1, x2
	stur	x1, [x29, #-16]
	bl	__ZN5alloc3vec16Vec$LT$T$C$A$GT$7reserve17hc49fe249faa7f92cE
	ldr	x0, [sp, #32]
	bl	__ZN5alloc3vec16Vec$LT$T$C$A$GT$3len17h173063724c5dd90aE
	str	x0, [sp, #24]
	ldr	x0, [sp, #32]
	bl	__ZN5alloc3vec16Vec$LT$T$C$A$GT$10as_mut_ptr17hfcc89accbe884ca3E
	str	x0, [sp, #16]
	ldr	x8, [sp, #16]
	ldr	x9, [sp, #24]
	add	x8, x8, x9
	stur	x8, [x29, #-8]
	ldur	x8, [x29, #-8]
	str	x8, [sp, #8]
	ldur	x2, [x29, #-16]
	ldr	x1, [sp, #8]
	ldur	x0, [x29, #-24]
	bl	__ZN4core10intrinsics19copy_nonoverlapping17h33629aa7746c9b29E
	ldr	x9, [sp, #32]
	ldur	x10, [x29, #-16]
	ldr	x8, [x9, #16]
	add	x8, x8, x10
	str	x8, [x9, #16]
	ldp	x29, x30, [sp, #64]
	add	sp, sp, #80
	ret
	.cfi_endproc

	.p2align	2
__ZN5alloc3vec16Vec$LT$T$C$A$GT$17extend_from_slice17h9e38f67142fe33a8E:
	.cfi_startproc
	sub	sp, sp, #48
	stp	x29, x30, [sp, #32]
	add	x29, sp, #32
	.cfi_def_cfa w29, 16
	.cfi_offset w30, -8
	.cfi_offset w29, -16
	str	x0, [sp, #8]
	mov	x0, x1
	mov	x1, x2
	bl	__ZN4core5slice29_$LT$impl$u20$$u5b$T$u5d$$GT$4iter17hc1f5c4b01afc26c2E
	str	x0, [sp, #16]
	stur	x1, [x29, #-8]
	ldur	x2, [x29, #-8]
	ldr	x1, [sp, #16]
	ldr	x0, [sp, #8]
	bl	__ZN132_$LT$alloc..vec..Vec$LT$T$C$A$GT$$u20$as$u20$alloc..vec..spec_extend..SpecExtend$LT$$RF$T$C$core..slice..iter..Iter$LT$T$GT$$GT$$GT$11spec_extend17hae672cf1e3d8c6d0E
	ldp	x29, x30, [sp, #32]
	add	sp, sp, #48
	ret
	.cfi_endproc

	.p2align	2
__ZN5alloc3vec16Vec$LT$T$C$A$GT$3len17h173063724c5dd90aE:
	.cfi_startproc
	ldr	x0, [x0, #16]
	ret
	.cfi_endproc

	.p2align	2
__ZN5alloc3vec16Vec$LT$T$C$A$GT$4push17haaeba3548e74d8beE:
Lfunc_begin11:
	.cfi_startproc
	.cfi_personality 155, _rust_eh_personality
	.cfi_lsda 16, Lexception11
	sub	sp, sp, #112
	stp	x29, x30, [sp, #96]
	add	x29, sp, #96
	.cfi_def_cfa w29, 16
	.cfi_offset w30, -8
	.cfi_offset w29, -16
	str	x0, [sp, #24]
	str	w1, [sp, #36]
	sturb	wzr, [x29, #-33]
	mov	w8, #1
	sturb	w8, [x29, #-33]
	ldr	x8, [x0, #16]
	str	x8, [sp, #40]
	ldr	x8, [x0, #8]
	stur	x8, [x29, #-16]
	ldur	x8, [x29, #-16]
	str	x8, [sp, #48]
	ldr	x8, [sp, #40]
	ldr	x9, [sp, #48]
	subs	x8, x8, x9
	b.eq	LBB122_5
	b	LBB122_4
LBB122_2:
	ldurb	w8, [x29, #-33]
	tbnz	w8, #0, LBB122_11
	b	LBB122_10
LBB122_3:
Ltmp81:
	mov	x8, x1
	stur	x0, [x29, #-32]
	stur	w8, [x29, #-24]
	b	LBB122_2
LBB122_4:
Ltmp77:
	ldr	x0, [sp, #24]
	bl	__ZN5alloc3vec16Vec$LT$T$C$A$GT$10as_mut_ptr17hfcc89accbe884ca3E
	str	x0, [sp, #16]
Ltmp78:
	b	LBB122_7
LBB122_5:
Ltmp75:
	ldr	x0, [sp, #24]
	mov	w8, #1
	mov	x1, x8
	bl	__ZN5alloc3vec16Vec$LT$T$C$A$GT$7reserve17hc49fe249faa7f92cE
Ltmp76:
	b	LBB122_4
LBB122_7:
	ldr	x8, [sp, #16]
	ldr	x9, [sp, #24]
	ldr	x9, [x9, #16]
	add	x8, x8, x9
	stur	x8, [x29, #-8]
	ldur	x8, [x29, #-8]
	str	x8, [sp, #8]
	ldr	w1, [sp, #36]
	ldr	x0, [sp, #8]
	sturb	wzr, [x29, #-33]
Ltmp79:
	bl	__ZN4core3ptr5write17hcfc7b9ae5e198474E
Ltmp80:
	ldr	x9, [sp, #24]
	ldr	x8, [x9, #16]
	add	x8, x8, #1
	str	x8, [x9, #16]
	ldp	x29, x30, [sp, #96]
	add	sp, sp, #112
	ret
LBB122_10:
	ldur	x0, [x29, #-32]
	bl	__Unwind_Resume
LBB122_11:
	b	LBB122_10
Lfunc_end11:
	.cfi_endproc
	.section	__TEXT,__gcc_except_tab
	.p2align	2
GCC_except_table122:
Lexception11:
	.byte	255
	.byte	255
	.byte	1
	.uleb128 Lcst_end11-Lcst_begin11
Lcst_begin11:
	.uleb128 Ltmp77-Lfunc_begin11
	.uleb128 Ltmp80-Ltmp77
	.uleb128 Ltmp81-Lfunc_begin11
	.byte	0
	.uleb128 Ltmp80-Lfunc_begin11
	.uleb128 Lfunc_end11-Ltmp80
	.byte	0
	.byte	0
Lcst_end11:
	.p2align	2

	.section	__TEXT,__text,regular,pure_instructions
	.p2align	2
__ZN5alloc3vec16Vec$LT$T$C$A$GT$7reserve17hc49fe249faa7f92cE:
	.cfi_startproc
	stp	x29, x30, [sp, #-16]!
	mov	x29, sp
	.cfi_def_cfa w29, 16
	.cfi_offset w30, -8
	.cfi_offset w29, -16
	mov	x2, x1
	ldr	x1, [x0, #16]
	bl	__ZN5alloc7raw_vec19RawVec$LT$T$C$A$GT$7reserve17h0b055848042a88d6E
	ldp	x29, x30, [sp], #16
	ret
	.cfi_endproc

	.p2align	2
__ZN5alloc5alloc12alloc_zeroed17h96184cfea70ba2d8E:
	.cfi_startproc
	sub	sp, sp, #64
	stp	x29, x30, [sp, #48]
	add	x29, sp, #48
	.cfi_def_cfa w29, 16
	.cfi_offset w30, -8
	.cfi_offset w29, -16
	mov	x8, x0
	sub	x0, x29, #16
	stur	x8, [x29, #-16]
	stur	x1, [x29, #-8]
	bl	__ZN4core5alloc6layout6Layout4size17h46e7cef1e8f4cdfcE
	str	x0, [sp, #24]
	sub	x0, x29, #16
	bl	__ZN4core5alloc6layout6Layout5align17hfaadab43d0a21165E
	str	x0, [sp, #16]
	ldr	x1, [sp, #16]
	ldr	x0, [sp, #24]
	bl	___rust_alloc_zeroed
	str	x0, [sp, #8]
	ldr	x0, [sp, #8]
	ldp	x29, x30, [sp, #48]
	add	sp, sp, #64
	ret
	.cfi_endproc

	.p2align	2
__ZN5alloc5alloc5alloc17h1096b12e83513172E:
	.cfi_startproc
	sub	sp, sp, #64
	stp	x29, x30, [sp, #48]
	add	x29, sp, #48
	.cfi_def_cfa w29, 16
	.cfi_offset w30, -8
	.cfi_offset w29, -16
	mov	x8, x0
	sub	x0, x29, #16
	stur	x8, [x29, #-16]
	stur	x1, [x29, #-8]
	bl	__ZN4core5alloc6layout6Layout4size17h46e7cef1e8f4cdfcE
	str	x0, [sp, #24]
	sub	x0, x29, #16
	bl	__ZN4core5alloc6layout6Layout5align17hfaadab43d0a21165E
	str	x0, [sp, #16]
	ldr	x1, [sp, #16]
	ldr	x0, [sp, #24]
	bl	___rust_alloc
	str	x0, [sp, #8]
	ldr	x0, [sp, #8]
	ldp	x29, x30, [sp, #48]
	add	sp, sp, #64
	ret
	.cfi_endproc

	.p2align	2
__ZN5alloc5alloc6Global10alloc_impl17he60de9750063b472E:
	.cfi_startproc
	sub	sp, sp, #144
	stp	x29, x30, [sp, #128]
	add	x29, sp, #128
	.cfi_def_cfa w29, 16
	.cfi_offset w30, -8
	.cfi_offset w29, -16
	stur	w3, [x29, #-60]
	sub	x0, x29, #48
	stur	x1, [x29, #-48]
	stur	x2, [x29, #-40]
	bl	__ZN4core5alloc6layout6Layout4size17h46e7cef1e8f4cdfcE
	stur	x0, [x29, #-56]
	ldur	x8, [x29, #-56]
	cbnz	x8, LBB126_3
	sub	x0, x29, #48
	bl	__ZN4core5alloc6layout6Layout8dangling17h6003f23f93e7a73fE
	str	x0, [sp, #56]
	b	LBB126_20
LBB126_3:
	ldur	w8, [x29, #-60]
	tbnz	w8, #0, LBB126_5
	ldur	x0, [x29, #-48]
	ldur	x1, [x29, #-40]
	bl	__ZN5alloc5alloc5alloc17h1096b12e83513172E
	stur	x0, [x29, #-16]
	b	LBB126_8
LBB126_5:
	ldur	x0, [x29, #-48]
	ldur	x1, [x29, #-40]
	bl	__ZN5alloc5alloc12alloc_zeroed17h96184cfea70ba2d8E
	stur	x0, [x29, #-16]
LBB126_7:
	ldur	x0, [x29, #-16]
	bl	__ZN4core3ptr8non_null16NonNull$LT$T$GT$3new17hac9ee2f1fb8938a7E
	str	x0, [sp, #48]
	b	LBB126_9
LBB126_8:
	b	LBB126_7
LBB126_9:
	ldr	x0, [sp, #48]
	bl	__ZN4core6option15Option$LT$T$GT$5ok_or17hcc3e27bde01a1131E
	str	x0, [sp, #40]
	ldr	x0, [sp, #40]
	bl	__ZN79_$LT$core..result..Result$LT$T$C$E$GT$$u20$as$u20$core..ops..try_trait..Try$GT$6branch17h1245776b11895788E
	stur	x0, [x29, #-8]
	ldur	x9, [x29, #-8]
	mov	x8, #0
	subs	x9, x9, #0
	csinc	x8, x8, xzr, ne
	cbz	x8, LBB126_14
	b	LBB126_15
LBB126_14:
	ldur	x1, [x29, #-56]
	ldur	x0, [x29, #-8]
	bl	__ZN4core3ptr8non_null26NonNull$LT$$u5b$T$u5d$$GT$20slice_from_raw_parts17hb448bc3f4ebfbfb3E
	str	x0, [sp, #24]
	str	x1, [sp, #32]
	b	LBB126_18
LBB126_15:
	bl	__ZN153_$LT$core..result..Result$LT$T$C$F$GT$$u20$as$u20$core..ops..try_trait..FromResidual$LT$core..result..Result$LT$core..convert..Infallible$C$E$GT$$GT$$GT$13from_residual17h49981dea9af537daE
	stur	x0, [x29, #-32]
	stur	x1, [x29, #-24]
LBB126_17:
	ldur	x0, [x29, #-32]
	ldur	x1, [x29, #-24]
	ldp	x29, x30, [sp, #128]
	add	sp, sp, #144
	ret
LBB126_18:
	ldr	x8, [sp, #32]
	ldr	x9, [sp, #24]
	stur	x9, [x29, #-32]
	stur	x8, [x29, #-24]
LBB126_19:
	b	LBB126_17
LBB126_20:
	ldr	x0, [sp, #56]
	mov	x1, #0
	bl	__ZN4core3ptr8non_null26NonNull$LT$$u5b$T$u5d$$GT$20slice_from_raw_parts17hb448bc3f4ebfbfb3E
	str	x0, [sp, #8]
	str	x1, [sp, #16]
	ldr	x8, [sp, #16]
	ldr	x9, [sp, #8]
	stur	x9, [x29, #-32]
	stur	x8, [x29, #-24]
	b	LBB126_19
	.cfi_endproc

	.p2align	2
__ZN5alloc5alloc6Global9grow_impl17hd281a12dbbb55adfE:
	.cfi_startproc
	sub	sp, sp, #304
	stp	x28, x27, [sp, #272]
	stp	x29, x30, [sp, #288]
	add	x29, sp, #288
	.cfi_def_cfa w29, 16
	.cfi_offset w30, -8
	.cfi_offset w29, -16
	.cfi_offset w27, -24
	.cfi_offset w28, -32
	stur	x0, [x29, #-128]
	stur	x1, [x29, #-120]
	stur	w6, [x29, #-108]
	sub	x0, x29, #104
	stur	x2, [x29, #-104]
	stur	x3, [x29, #-96]
	stur	x4, [x29, #-88]
	stur	x5, [x29, #-80]
	bl	__ZN4core5alloc6layout6Layout4size17h46e7cef1e8f4cdfcE
	stur	x0, [x29, #-56]
	ldur	x8, [x29, #-56]
	cbnz	x8, LBB127_3
	ldur	w8, [x29, #-108]
	ldur	x0, [x29, #-128]
	ldur	x1, [x29, #-88]
	ldur	x2, [x29, #-80]
	and	w3, w8, #0x1
	bl	__ZN5alloc5alloc6Global10alloc_impl17he60de9750063b472E
	stur	x0, [x29, #-72]
	stur	x1, [x29, #-64]
	b	LBB127_40
LBB127_3:
	sub	x0, x29, #104
	bl	__ZN4core5alloc6layout6Layout5align17hfaadab43d0a21165E
	stur	x0, [x29, #-136]
	sub	x0, x29, #88
	bl	__ZN4core5alloc6layout6Layout5align17hfaadab43d0a21165E
	str	x0, [sp, #144]
	ldur	x8, [x29, #-136]
	ldr	x9, [sp, #144]
	subs	x8, x8, x9
	b.eq	LBB127_7
	ldur	w8, [x29, #-108]
	ldur	x0, [x29, #-128]
	ldur	x9, [x29, #-56]
	str	x9, [sp, #120]
	ldur	x1, [x29, #-88]
	ldur	x2, [x29, #-80]
	and	w3, w8, #0x1
	bl	__ZN5alloc5alloc6Global10alloc_impl17he60de9750063b472E
	str	x0, [sp, #128]
	str	x1, [sp, #136]
	b	LBB127_28
LBB127_7:
	ldur	x8, [x29, #-56]
	str	x8, [sp, #104]
	sub	x0, x29, #88
	bl	__ZN4core5alloc6layout6Layout4size17h46e7cef1e8f4cdfcE
	str	x0, [sp, #112]
	sub	x0, x29, #104
	bl	__ZN4core5alloc6layout6Layout4size17h46e7cef1e8f4cdfcE
	ldur	x0, [x29, #-120]
	bl	__ZN4core3ptr8non_null16NonNull$LT$T$GT$6as_ptr17h44d8f2010561699aE
	str	x0, [sp, #96]
	ldr	x3, [sp, #112]
	ldr	x0, [sp, #96]
	ldur	x1, [x29, #-104]
	ldur	x2, [x29, #-96]
	bl	__ZN5alloc5alloc7realloc17h3141990c6db9aeb8E
	str	x0, [sp, #88]
	ldr	x0, [sp, #88]
	bl	__ZN4core3ptr8non_null16NonNull$LT$T$GT$3new17hac9ee2f1fb8938a7E
	str	x0, [sp, #80]
	ldr	x0, [sp, #80]
	bl	__ZN4core6option15Option$LT$T$GT$5ok_or17hcc3e27bde01a1131E
	str	x0, [sp, #72]
	ldr	x0, [sp, #72]
	bl	__ZN79_$LT$core..result..Result$LT$T$C$E$GT$$u20$as$u20$core..ops..try_trait..Try$GT$6branch17h1245776b11895788E
	stur	x0, [x29, #-48]
	ldur	x9, [x29, #-48]
	mov	x8, #0
	subs	x9, x9, #0
	csinc	x8, x8, xzr, ne
	cbz	x8, LBB127_18
	b	LBB127_19
LBB127_18:
	ldur	w8, [x29, #-108]
	ldur	x9, [x29, #-48]
	str	x9, [sp, #64]
	tbnz	w8, #0, LBB127_23
	b	LBB127_22
LBB127_19:
	bl	__ZN153_$LT$core..result..Result$LT$T$C$F$GT$$u20$as$u20$core..ops..try_trait..FromResidual$LT$core..result..Result$LT$core..convert..Infallible$C$E$GT$$GT$$GT$13from_residual17h49981dea9af537daE
	stur	x0, [x29, #-72]
	stur	x1, [x29, #-64]
LBB127_21:
	b	LBB127_35
LBB127_22:
	ldr	x1, [sp, #112]
	ldr	x0, [sp, #64]
	bl	__ZN4core3ptr8non_null26NonNull$LT$$u5b$T$u5d$$GT$20slice_from_raw_parts17hb448bc3f4ebfbfb3E
	str	x0, [sp, #48]
	str	x1, [sp, #56]
	b	LBB127_26
LBB127_23:
	ldr	x8, [sp, #88]
	ldr	x9, [sp, #104]
	add	x8, x8, x9
	stur	x8, [x29, #-24]
	ldur	x8, [x29, #-24]
	str	x8, [sp, #40]
	ldr	x0, [sp, #40]
	ldr	x8, [sp, #112]
	ldr	x9, [sp, #104]
	subs	x2, x8, x9
	mov	w1, #0
	bl	__ZN4core10intrinsics11write_bytes17h93d317cb7bdf1762E
	b	LBB127_22
LBB127_26:
	ldr	x8, [sp, #56]
	ldr	x9, [sp, #48]
	stur	x9, [x29, #-72]
	stur	x8, [x29, #-64]
LBB127_27:
	b	LBB127_35
LBB127_28:
	ldr	x1, [sp, #136]
	ldr	x0, [sp, #128]
	bl	__ZN79_$LT$core..result..Result$LT$T$C$E$GT$$u20$as$u20$core..ops..try_trait..Try$GT$6branch17h86e1781b507f9676E
	stur	x0, [x29, #-40]
	stur	x1, [x29, #-32]
	ldur	x9, [x29, #-40]
	mov	x8, #0
	subs	x9, x9, #0
	csinc	x8, x8, xzr, ne
	cbz	x8, LBB127_32
	b	LBB127_33
LBB127_32:
	ldur	x0, [x29, #-120]
	ldur	x8, [x29, #-40]
	str	x8, [sp, #16]
	ldur	x8, [x29, #-32]
	str	x8, [sp, #24]
	bl	__ZN4core3ptr8non_null16NonNull$LT$T$GT$6as_ptr17h44d8f2010561699aE
	str	x0, [sp, #32]
	b	LBB127_36
LBB127_33:
	bl	__ZN153_$LT$core..result..Result$LT$T$C$F$GT$$u20$as$u20$core..ops..try_trait..FromResidual$LT$core..result..Result$LT$core..convert..Infallible$C$E$GT$$GT$$GT$13from_residual17h49981dea9af537daE
	stur	x0, [x29, #-72]
	stur	x1, [x29, #-64]
	b	LBB127_21
LBB127_35:
	ldur	x0, [x29, #-72]
	ldur	x1, [x29, #-64]
	ldp	x29, x30, [sp, #288]
	ldp	x28, x27, [sp, #272]
	add	sp, sp, #304
	ret
LBB127_36:
	ldr	x1, [sp, #24]
	ldr	x0, [sp, #16]
	bl	__ZN4core3ptr8non_null26NonNull$LT$$u5b$T$u5d$$GT$10as_mut_ptr17h282998646e0ddebeE
	str	x0, [sp, #8]
	ldr	x2, [sp, #120]
	ldr	x1, [sp, #8]
	ldr	x0, [sp, #32]
	bl	__ZN4core10intrinsics19copy_nonoverlapping17h33629aa7746c9b29E
	ldur	x1, [x29, #-120]
	ldur	x0, [x29, #-128]
	ldur	x2, [x29, #-104]
	ldur	x3, [x29, #-96]
	bl	__ZN63_$LT$alloc..alloc..Global$u20$as$u20$core..alloc..Allocator$GT$10deallocate17hcd2f43d444edbc39E
	ldr	x8, [sp, #24]
	ldr	x9, [sp, #16]
	stur	x9, [x29, #-72]
	stur	x8, [x29, #-64]
	b	LBB127_27
LBB127_40:
	b	LBB127_27
	.cfi_endproc

	.p2align	2
__ZN5alloc5alloc7dealloc17h37ec622bfbceab47E:
	.cfi_startproc
	sub	sp, sp, #64
	stp	x29, x30, [sp, #48]
	add	x29, sp, #48
	.cfi_def_cfa w29, 16
	.cfi_offset w30, -8
	.cfi_offset w29, -16
	str	x0, [sp, #16]
	sub	x0, x29, #16
	stur	x1, [x29, #-16]
	stur	x2, [x29, #-8]
	bl	__ZN4core5alloc6layout6Layout4size17h46e7cef1e8f4cdfcE
	str	x0, [sp, #24]
	sub	x0, x29, #16
	bl	__ZN4core5alloc6layout6Layout5align17hfaadab43d0a21165E
	str	x0, [sp, #8]
	ldr	x2, [sp, #8]
	ldr	x1, [sp, #24]
	ldr	x0, [sp, #16]
	bl	___rust_dealloc
	ldp	x29, x30, [sp, #48]
	add	sp, sp, #64
	ret
	.cfi_endproc

	.p2align	2
__ZN5alloc5alloc7realloc17h3141990c6db9aeb8E:
	.cfi_startproc
	sub	sp, sp, #80
	stp	x29, x30, [sp, #64]
	add	x29, sp, #64
	.cfi_def_cfa w29, 16
	.cfi_offset w30, -8
	.cfi_offset w29, -16
	str	x0, [sp, #24]
	str	x3, [sp, #32]
	sub	x0, x29, #16
	stur	x1, [x29, #-16]
	stur	x2, [x29, #-8]
	bl	__ZN4core5alloc6layout6Layout4size17h46e7cef1e8f4cdfcE
	stur	x0, [x29, #-24]
	sub	x0, x29, #16
	bl	__ZN4core5alloc6layout6Layout5align17hfaadab43d0a21165E
	str	x0, [sp, #16]
	ldr	x3, [sp, #32]
	ldr	x2, [sp, #16]
	ldur	x1, [x29, #-24]
	ldr	x0, [sp, #24]
	bl	___rust_realloc
	str	x0, [sp, #8]
	ldr	x0, [sp, #8]
	ldp	x29, x30, [sp, #64]
	add	sp, sp, #80
	ret
	.cfi_endproc

	.p2align	2
__ZN5alloc6string6String3new17ha6ffa4394da47885E:
	.cfi_startproc
	sub	sp, sp, #48
	stp	x29, x30, [sp, #32]
	add	x29, sp, #32
	.cfi_def_cfa w29, 16
	.cfi_offset w30, -8
	.cfi_offset w29, -16
	str	x8, [sp]
	add	x8, sp, #8
	bl	__ZN5alloc3vec12Vec$LT$T$GT$3new17hdc9485e9dc9d8fffE
	ldr	x9, [sp]
	ldur	q0, [sp, #8]
	str	q0, [x9]
	ldr	x8, [sp, #24]
	str	x8, [x9, #16]
	ldp	x29, x30, [sp, #32]
	add	sp, sp, #48
	ret
	.cfi_endproc

	.p2align	2
__ZN5alloc6string6String4push17h629996ae46bf5cbfE:
	.cfi_startproc
	sub	sp, sp, #96
	stp	x29, x30, [sp, #80]
	add	x29, sp, #80
	.cfi_def_cfa w29, 16
	.cfi_offset w30, -8
	.cfi_offset w29, -16
	str	x0, [sp, #32]
	mov	x0, x1
	stur	w0, [x29, #-36]
	bl	__ZN4core4char7methods22_$LT$impl$u20$char$GT$8len_utf817hd384964343a9273eE
	stur	x0, [x29, #-32]
	ldur	x8, [x29, #-32]
	subs	x8, x8, #1
	b.ne	LBB131_3
	ldur	w1, [x29, #-36]
	ldr	x0, [sp, #32]
	bl	__ZN5alloc3vec16Vec$LT$T$C$A$GT$4push17haaeba3548e74d8beE
	b	LBB131_8
LBB131_3:
	ldur	w0, [x29, #-36]
	sub	x1, x29, #20
	stur	wzr, [x29, #-20]
	mov	w8, #4
	mov	x2, x8
	bl	__ZN4core4char7methods22_$LT$impl$u20$char$GT$11encode_utf817h38086a59768f2d2fE
	str	x0, [sp, #16]
	str	x1, [sp, #24]
	ldr	x8, [sp, #24]
	ldr	x9, [sp, #16]
	stur	x9, [x29, #-16]
	stur	x8, [x29, #-8]
	ldur	x8, [x29, #-16]
	str	x8, [sp]
	ldur	x8, [x29, #-8]
	str	x8, [sp, #8]
	ldr	x2, [sp, #8]
	ldr	x1, [sp]
	ldr	x0, [sp, #32]
	bl	__ZN5alloc3vec16Vec$LT$T$C$A$GT$17extend_from_slice17h9e38f67142fe33a8E
LBB131_7:
	ldp	x29, x30, [sp, #80]
	add	sp, sp, #96
	ret
LBB131_8:
	b	LBB131_7
	.cfi_endproc

	.p2align	2
__ZN5alloc6string6String8push_str17hf65c654e245a30feE:
	.cfi_startproc
	sub	sp, sp, #64
	stp	x29, x30, [sp, #48]
	add	x29, sp, #48
	.cfi_def_cfa w29, 16
	.cfi_offset w30, -8
	.cfi_offset w29, -16
	str	x0, [sp, #8]
	stur	x1, [x29, #-16]
	stur	x2, [x29, #-8]
	ldur	x8, [x29, #-16]
	str	x8, [sp, #16]
	ldur	x8, [x29, #-8]
	str	x8, [sp, #24]
	ldr	x2, [sp, #24]
	ldr	x1, [sp, #16]
	ldr	x0, [sp, #8]
	bl	__ZN5alloc3vec16Vec$LT$T$C$A$GT$17extend_from_slice17h9e38f67142fe33a8E
	ldp	x29, x30, [sp, #48]
	add	sp, sp, #64
	ret
	.cfi_endproc

	.p2align	2
__ZN5alloc7raw_vec11alloc_guard17hb706daaa8744fb42E:
	.cfi_startproc
	sub	sp, sp, #64
	stp	x29, x30, [sp, #48]
	add	x29, sp, #48
	.cfi_def_cfa w29, 16
	.cfi_offset w30, -8
	.cfi_offset w29, -16
	str	x8, [sp, #24]
	mov	w8, #0
	tbnz	w8, #0, LBB133_2
	ldr	x8, [sp, #24]
	str	xzr, [x8]
	b	LBB133_4
LBB133_2:
	stur	xzr, [x29, #-16]
	stur	xzr, [x29, #-8]
	stur	xzr, [x29, #-8]
	ldur	x0, [x29, #-16]
	ldur	x1, [x29, #-8]
	bl	__ZN50_$LT$T$u20$as$u20$core..convert..Into$LT$U$GT$$GT$4into17he5aaa975ae640824E
	str	x0, [sp, #8]
	str	x1, [sp, #16]
	ldr	x9, [sp, #24]
	ldr	x8, [sp, #16]
	ldr	x11, [sp, #8]
	add	x10, x9, #8
	str	x11, [x9, #8]
	str	x8, [x10, #8]
	mov	w8, #1
	str	x8, [x9]
LBB133_4:
	ldp	x29, x30, [sp, #48]
	add	sp, sp, #64
	ret
	.cfi_endproc

	.p2align	2
__ZN5alloc7raw_vec11finish_grow17h854ace7eb2a7c12bE:
	.cfi_startproc
	sub	sp, sp, #208
	stp	x29, x30, [sp, #192]
	add	x29, sp, #192
	.cfi_def_cfa w29, 16
	.cfi_offset w30, -8
	.cfi_offset w29, -16
	str	x8, [sp, #16]
	str	x2, [sp, #24]
	str	x3, [sp, #32]
	add	x8, sp, #80
	bl	__ZN4core6result19Result$LT$T$C$E$GT$7map_err17hb2b30a7414735167E
	add	x8, sp, #56
	add	x0, sp, #80
	bl	__ZN79_$LT$core..result..Result$LT$T$C$E$GT$$u20$as$u20$core..ops..try_trait..Try$GT$6branch17h30345b5454e18820E
	ldr	x8, [sp, #56]
	cbz	x8, LBB134_5
	b	LBB134_6
LBB134_5:
	add	x8, sp, #56
	add	x8, x8, #8
	ldr	x9, [sp, #64]
	ldr	x8, [x8, #8]
	add	x0, sp, #40
	str	x9, [sp, #40]
	str	x8, [sp, #48]
	bl	__ZN4core5alloc6layout6Layout4size17h46e7cef1e8f4cdfcE
	str	x0, [sp, #8]
	b	LBB134_9
LBB134_6:
	ldr	x8, [sp, #16]
	add	x9, sp, #56
	add	x9, x9, #8
	ldr	x0, [sp, #64]
	ldr	x1, [x9, #8]
	bl	__ZN153_$LT$core..result..Result$LT$T$C$F$GT$$u20$as$u20$core..ops..try_trait..FromResidual$LT$core..result..Result$LT$core..convert..Infallible$C$E$GT$$GT$$GT$13from_residual17hb43ae3cb8a6e4844E
LBB134_8:
	b	LBB134_17
LBB134_9:
	ldr	x0, [sp, #8]
	sub	x8, x29, #64
	bl	__ZN5alloc7raw_vec11alloc_guard17hb706daaa8744fb42E
	sub	x8, x29, #88
	sub	x0, x29, #64
	bl	__ZN79_$LT$core..result..Result$LT$T$C$E$GT$$u20$as$u20$core..ops..try_trait..Try$GT$6branch17hc68c4abddef3b390E
	ldur	x8, [x29, #-88]
	cbz	x8, LBB134_14
	b	LBB134_15
LBB134_14:
	ldr	x8, [sp, #24]
	ldr	x8, [x8]
	subs	x8, x8, #0
	cset	x8, ne
	subs	x8, x8, #1
	b.eq	LBB134_18
	b	LBB134_19
LBB134_15:
	ldr	x8, [sp, #16]
	sub	x9, x29, #88
	add	x9, x9, #8
	ldur	x0, [x29, #-80]
	ldr	x1, [x9, #8]
	bl	__ZN153_$LT$core..result..Result$LT$T$C$F$GT$$u20$as$u20$core..ops..try_trait..FromResidual$LT$core..result..Result$LT$core..convert..Infallible$C$E$GT$$GT$$GT$13from_residual17h63beec4fba69f15cE
	b	LBB134_8
LBB134_17:
	ldp	x29, x30, [sp, #192]
	add	sp, sp, #208
	ret
LBB134_18:
	ldr	x9, [sp, #24]
	ldr	x8, [x9]
	str	x8, [sp]
	add	x8, x9, #8
	ldr	x9, [x9, #8]
	ldr	x8, [x8, #8]
	sub	x0, x29, #24
	stur	x9, [x29, #-24]
	stur	x8, [x29, #-16]
	bl	__ZN4core5alloc6layout6Layout5align17hfaadab43d0a21165E
	b	LBB134_22
LBB134_19:
	ldr	x0, [sp, #32]
	ldr	x1, [sp, #40]
	ldr	x2, [sp, #48]
	bl	__ZN63_$LT$alloc..alloc..Global$u20$as$u20$core..alloc..Allocator$GT$8allocate17h10033279cd8ce37dE
	stur	x0, [x29, #-40]
	stur	x1, [x29, #-32]
LBB134_21:
	ldr	x8, [sp, #16]
	ldur	x0, [x29, #-40]
	ldur	x1, [x29, #-32]
	add	x9, sp, #40
	stur	x9, [x29, #-8]
	ldur	x2, [x29, #-8]
	bl	__ZN4core6result19Result$LT$T$C$E$GT$7map_err17h046d00967c401c51E
	b	LBB134_26
LBB134_22:
	add	x0, sp, #40
	bl	__ZN4core5alloc6layout6Layout5align17hfaadab43d0a21165E
	ldr	x1, [sp]
	ldr	x0, [sp, #32]
	ldur	x2, [x29, #-24]
	ldur	x3, [x29, #-16]
	ldr	x4, [sp, #40]
	ldr	x5, [sp, #48]
	bl	__ZN63_$LT$alloc..alloc..Global$u20$as$u20$core..alloc..Allocator$GT$4grow17h393e7a54d241efcaE
	stur	x0, [x29, #-40]
	stur	x1, [x29, #-32]
	b	LBB134_21
LBB134_26:
	b	LBB134_17
	.cfi_endproc

	.p2align	2
__ZN5alloc7raw_vec11finish_grow28_$u7b$$u7b$closure$u7d$$u7d$17h739f13938010e8c7E:
	.cfi_startproc
	sub	sp, sp, #48
	stp	x29, x30, [sp, #32]
	add	x29, sp, #32
	.cfi_def_cfa w29, 16
	.cfi_offset w30, -8
	.cfi_offset w29, -16
	ldr	x9, [x0]
	ldr	x8, [x0, #8]
	str	x9, [sp, #16]
	str	x8, [sp, #24]
	ldr	x0, [sp, #16]
	ldr	x1, [sp, #24]
	bl	__ZN50_$LT$T$u20$as$u20$core..convert..Into$LT$U$GT$$GT$4into17he5aaa975ae640824E
	str	x0, [sp]
	str	x1, [sp, #8]
	ldr	x1, [sp, #8]
	ldr	x0, [sp]
	ldp	x29, x30, [sp, #32]
	add	sp, sp, #48
	ret
	.cfi_endproc

	.p2align	2
__ZN5alloc7raw_vec11finish_grow28_$u7b$$u7b$closure$u7d$$u7d$17hc432e1320af33368E:
	.cfi_startproc
	sub	sp, sp, #16
	.cfi_def_cfa_offset 16
	str	xzr, [sp]
	str	xzr, [sp, #8]
	str	xzr, [sp, #8]
	ldr	x0, [sp]
	ldr	x1, [sp, #8]
	add	sp, sp, #16
	ret
	.cfi_endproc

	.p2align	2
__ZN5alloc7raw_vec14handle_reserve17hd59d21e0d4d82c08E:
	.cfi_startproc
	sub	sp, sp, #80
	stp	x29, x30, [sp, #64]
	add	x29, sp, #64
	.cfi_def_cfa w29, 16
	.cfi_offset w30, -8
	.cfi_offset w29, -16
	mov	x8, x0
	ldr	q0, [x8]
	add	x0, sp, #32
	str	q0, [sp, #32]
	ldr	x8, [x8, #16]
	str	x8, [sp, #48]
	add	x8, sp, #8
	bl	__ZN4core6result19Result$LT$T$C$E$GT$7map_err17h4ac70ccd7cf5ea09E
	ldr	x8, [sp, #8]
	cbz	x8, LBB137_4
	b	LBB137_5
LBB137_4:
	ldp	x29, x30, [sp, #64]
	add	sp, sp, #80
	ret
LBB137_5:
	ldr	x8, [sp, #24]
	subs	x8, x8, #0
	cset	x8, ne
	cbz	x8, LBB137_7
	b	LBB137_8
LBB137_7:
	bl	__ZN5alloc7raw_vec17capacity_overflow17h1379082d54a09775E
LBB137_8:
	add	x8, sp, #8
	add	x8, x8, #8
	ldr	x0, [sp, #16]
	ldr	x1, [x8, #8]
	bl	__ZN5alloc5alloc18handle_alloc_error17hc97fddd7bbab255dE
	.cfi_endproc

	.p2align	2
__ZN5alloc7raw_vec14handle_reserve28_$u7b$$u7b$closure$u7d$$u7d$17h7a7b6a472de58095E:
	.cfi_startproc
	sub	sp, sp, #48
	stp	x29, x30, [sp, #32]
	add	x29, sp, #32
	.cfi_def_cfa w29, 16
	.cfi_offset w30, -8
	.cfi_offset w29, -16
	mov	x8, x0
	add	x0, sp, #16
	str	x8, [sp, #16]
	str	x1, [sp, #24]
	bl	__ZN5alloc11collections15TryReserveError4kind17h23c14d8f53c61ef9E
	str	x0, [sp]
	str	x1, [sp, #8]
	ldr	x1, [sp, #8]
	ldr	x0, [sp]
	ldp	x29, x30, [sp, #32]
	add	sp, sp, #48
	ret
	.cfi_endproc

	.p2align	2
__ZN5alloc7raw_vec19RawVec$LT$T$C$A$GT$13needs_to_grow17h5ec79a7331954439E:
	.cfi_startproc
	sub	sp, sp, #48
	.cfi_def_cfa_offset 48
	str	x1, [sp, #16]
	str	x2, [sp, #24]
	ldr	x8, [x0, #8]
	str	x8, [sp, #40]
	ldr	x8, [sp, #40]
	str	x8, [sp, #32]
	ldr	x8, [sp, #32]
	ldr	x9, [sp, #16]
	subs	x8, x8, x9
	str	x8, [sp, #8]
	ldr	x8, [sp, #24]
	ldr	x9, [sp, #8]
	subs	x8, x8, x9
	cset	w8, hi
	and	w0, w8, #0x1
	add	sp, sp, #48
	ret
	.cfi_endproc

	.p2align	2
__ZN5alloc7raw_vec19RawVec$LT$T$C$A$GT$14current_memory17h26ab90cd96cd0732E:
	.cfi_startproc
	sub	sp, sp, #96
	stp	x29, x30, [sp, #80]
	add	x29, sp, #80
	.cfi_def_cfa w29, 16
	.cfi_offset w30, -8
	.cfi_offset w29, -16
	str	x8, [sp, #32]
	str	x0, [sp, #40]
	mov	w8, #1
	cbnz	x8, LBB140_3
	mov	w8, #1
	sturb	w8, [x29, #-25]
	b	LBB140_4
LBB140_3:
	ldr	x8, [sp, #40]
	ldr	x8, [x8, #8]
	subs	x8, x8, #0
	cset	w8, eq
	and	w8, w8, #0x1
	sturb	w8, [x29, #-25]
LBB140_4:
	ldurb	w8, [x29, #-25]
	tbnz	w8, #0, LBB140_6
	b	LBB140_8
LBB140_6:
	ldr	x8, [sp, #32]
	str	xzr, [x8]
	str	xzr, [x8, #8]
	str	xzr, [x8, #16]
	str	xzr, [x8]
LBB140_7:
	ldp	x29, x30, [sp, #80]
	add	sp, sp, #96
	ret
LBB140_8:
	ldr	x8, [sp, #40]
	ldr	x8, [x8, #8]
	mov	w9, #1
	mov	x1, x9
	mul	x0, x1, x8
	bl	__ZN4core5alloc6layout6Layout25from_size_align_unchecked17hccfc446430dc22deE
	str	x0, [sp, #16]
	str	x1, [sp, #24]
	ldr	x8, [sp, #40]
	ldr	x0, [x8]
	bl	__ZN4core3ptr6unique15Unique$LT$T$GT$4cast17ha36a69b29377335fE
	str	x0, [sp, #8]
	ldr	x0, [sp, #8]
	bl	__ZN50_$LT$T$u20$as$u20$core..convert..Into$LT$U$GT$$GT$4into17h432bd096ecda9539E
	str	x0, [sp]
	ldr	x9, [sp, #32]
	ldr	x8, [sp, #24]
	ldr	x11, [sp, #16]
	ldr	x12, [sp]
	sub	x10, x29, #24
	stur	x12, [x29, #-24]
	add	x10, x10, #8
	stur	x11, [x29, #-16]
	str	x8, [x10, #8]
	ldur	q0, [x29, #-24]
	str	q0, [x9]
	ldur	x8, [x29, #-8]
	str	x8, [x9, #16]
	b	LBB140_7
	.cfi_endproc

	.p2align	2
__ZN5alloc7raw_vec19RawVec$LT$T$C$A$GT$14grow_amortized17h3cc5d95f92336713E:
	.cfi_startproc
	sub	sp, sp, #288
	stp	x28, x27, [sp, #256]
	stp	x29, x30, [sp, #272]
	add	x29, sp, #272
	.cfi_def_cfa w29, 16
	.cfi_offset w30, -8
	.cfi_offset w29, -16
	.cfi_offset w27, -24
	.cfi_offset w28, -32
	str	x8, [sp, #72]
	str	x0, [sp, #80]
	str	x1, [sp, #88]
	str	x2, [sp, #96]
	mov	w8, #1
	cbnz	x8, LBB141_3
	str	xzr, [sp, #104]
	str	xzr, [sp, #112]
	str	xzr, [sp, #112]
	ldr	x0, [sp, #104]
	ldr	x1, [sp, #112]
	bl	__ZN50_$LT$T$u20$as$u20$core..convert..Into$LT$U$GT$$GT$4into17he5aaa975ae640824E
	str	x0, [sp, #56]
	str	x1, [sp, #64]
	b	LBB141_26
LBB141_3:
	ldr	x1, [sp, #96]
	ldr	x0, [sp, #88]
	bl	__ZN4core3num23_$LT$impl$u20$usize$GT$11checked_add17h831a962ca9bb7bc4E
	str	x0, [sp, #40]
	str	x1, [sp, #48]
	ldr	x1, [sp, #48]
	ldr	x0, [sp, #40]
	stur	xzr, [x29, #-104]
	stur	xzr, [x29, #-96]
	stur	xzr, [x29, #-96]
	ldur	x2, [x29, #-104]
	ldur	x3, [x29, #-96]
	sub	x8, x29, #128
	bl	__ZN4core6option15Option$LT$T$GT$5ok_or17h46e01aed625f8755E
	add	x8, sp, #120
	sub	x0, x29, #128
	bl	__ZN79_$LT$core..result..Result$LT$T$C$E$GT$$u20$as$u20$core..ops..try_trait..Try$GT$6branch17hae803f4edd69bcd6E
	ldr	x8, [sp, #120]
	cbz	x8, LBB141_9
	b	LBB141_10
LBB141_9:
	ldr	x8, [sp, #80]
	ldr	x1, [sp, #128]
	ldr	x8, [x8, #8]
	lsl	x0, x8, #1
	bl	__ZN4core3cmp3max17h024707c6691d9f06E
	str	x0, [sp, #32]
	b	LBB141_13
LBB141_10:
	ldr	x8, [sp, #72]
	add	x9, sp, #120
	add	x9, x9, #8
	ldr	x0, [sp, #128]
	ldr	x1, [x9, #8]
	bl	__ZN153_$LT$core..result..Result$LT$T$C$F$GT$$u20$as$u20$core..ops..try_trait..FromResidual$LT$core..result..Result$LT$core..convert..Infallible$C$E$GT$$GT$$GT$13from_residual17h66d6d1a3cf6e2510E
LBB141_12:
	b	LBB141_24
LBB141_13:
	ldr	x1, [sp, #32]
	mov	w8, #8
	mov	x0, x8
	bl	__ZN4core3cmp3max17h024707c6691d9f06E
	str	x0, [sp, #24]
	ldr	x0, [sp, #24]
	bl	__ZN4core5alloc6layout6Layout5array17hc9e4d2ab7814d08dE
	str	x0, [sp, #8]
	str	x1, [sp, #16]
	ldr	x0, [sp, #80]
	sub	x8, x29, #40
	bl	__ZN5alloc7raw_vec19RawVec$LT$T$C$A$GT$14current_memory17h26ab90cd96cd0732E
	ldr	x3, [sp, #80]
	ldr	x1, [sp, #16]
	ldr	x0, [sp, #8]
	sub	x8, x29, #64
	sub	x2, x29, #40
	bl	__ZN5alloc7raw_vec11finish_grow17h854ace7eb2a7c12bE
	sub	x8, x29, #88
	sub	x0, x29, #64
	bl	__ZN79_$LT$core..result..Result$LT$T$C$E$GT$$u20$as$u20$core..ops..try_trait..Try$GT$6branch17h295d98c7ad063056E
	ldur	x8, [x29, #-88]
	cbz	x8, LBB141_21
	b	LBB141_22
LBB141_21:
	ldr	x0, [sp, #80]
	sub	x8, x29, #88
	add	x8, x8, #8
	ldur	x1, [x29, #-80]
	ldr	x2, [x8, #8]
	bl	__ZN5alloc7raw_vec19RawVec$LT$T$C$A$GT$7set_ptr17h2f849b8bb6ba0c25E
	b	LBB141_25
LBB141_22:
	ldr	x8, [sp, #72]
	sub	x9, x29, #88
	add	x9, x9, #8
	ldur	x0, [x29, #-80]
	ldr	x1, [x9, #8]
	bl	__ZN153_$LT$core..result..Result$LT$T$C$F$GT$$u20$as$u20$core..ops..try_trait..FromResidual$LT$core..result..Result$LT$core..convert..Infallible$C$E$GT$$GT$$GT$13from_residual17h75d13845e049af48E
	b	LBB141_12
LBB141_24:
	ldp	x29, x30, [sp, #272]
	ldp	x28, x27, [sp, #256]
	add	sp, sp, #288
	ret
LBB141_25:
	ldr	x8, [sp, #72]
	str	xzr, [x8]
	b	LBB141_24
LBB141_26:
	ldr	x9, [sp, #72]
	ldr	x8, [sp, #64]
	ldr	x11, [sp, #56]
	add	x10, x9, #8
	str	x11, [x9, #8]
	str	x8, [x10, #8]
	mov	w8, #1
	str	x8, [x9]
	b	LBB141_24
	.cfi_endproc

	.p2align	2
__ZN5alloc7raw_vec19RawVec$LT$T$C$A$GT$19capacity_from_bytes17h443c0a9e98a3bbd7E:
	.cfi_startproc
	sub	sp, sp, #32
	stp	x29, x30, [sp, #16]
	add	x29, sp, #16
	.cfi_def_cfa w29, 16
	.cfi_offset w30, -8
	.cfi_offset w29, -16
	str	x0, [sp, #8]
	mov	w8, #1
	cbz	x8, LBB142_3
	ldr	x8, [sp, #8]
	mov	w9, #1
	udiv	x0, x8, x9
	ldp	x29, x30, [sp, #16]
	add	sp, sp, #32
	ret
LBB142_3:
	adrp	x0, _str.0@PAGE
	add	x0, x0, _str.0@PAGEOFF
	mov	w8, #25
	mov	x1, x8
	adrp	x2, l___unnamed_17@PAGE
	add	x2, x2, l___unnamed_17@PAGEOFF
	bl	__ZN4core9panicking5panic17hedf83d3b66d674c2E
	.cfi_endproc

	.p2align	2
__ZN5alloc7raw_vec19RawVec$LT$T$C$A$GT$3ptr17h1e66dcd602ecd829E:
	.cfi_startproc
	sub	sp, sp, #32
	stp	x29, x30, [sp, #16]
	add	x29, sp, #16
	.cfi_def_cfa w29, 16
	.cfi_offset w30, -8
	.cfi_offset w29, -16
	ldr	x0, [x0]
	bl	__ZN4core3ptr6unique15Unique$LT$T$GT$6as_ptr17h08209de83d032ad2E
	str	x0, [sp, #8]
	ldr	x0, [sp, #8]
	ldp	x29, x30, [sp, #16]
	add	sp, sp, #32
	ret
	.cfi_endproc

	.p2align	2
__ZN5alloc7raw_vec19RawVec$LT$T$C$A$GT$7reserve17h0b055848042a88d6E:
	.cfi_startproc
	sub	sp, sp, #48
	stp	x29, x30, [sp, #32]
	add	x29, sp, #32
	.cfi_def_cfa w29, 16
	.cfi_offset w30, -8
	.cfi_offset w29, -16
	str	x0, [sp]
	str	x1, [sp, #8]
	str	x2, [sp, #16]
	bl	__ZN5alloc7raw_vec19RawVec$LT$T$C$A$GT$13needs_to_grow17h5ec79a7331954439E
	stur	w0, [x29, #-4]
	ldur	w8, [x29, #-4]
	tbnz	w8, #0, LBB144_3
LBB144_2:
	ldp	x29, x30, [sp, #32]
	add	sp, sp, #48
	ret
LBB144_3:
	ldr	x2, [sp, #16]
	ldr	x1, [sp, #8]
	ldr	x0, [sp]
	bl	__ZN5alloc7raw_vec19RawVec$LT$T$C$A$GT$7reserve21do_reserve_and_handle17h8d3ebe68373e0e88E
	b	LBB144_2
	.cfi_endproc

	.p2align	2
__ZN5alloc7raw_vec19RawVec$LT$T$C$A$GT$7reserve21do_reserve_and_handle17h8d3ebe68373e0e88E:
	.cfi_startproc
	sub	sp, sp, #48
	stp	x29, x30, [sp, #32]
	add	x29, sp, #32
	.cfi_def_cfa w29, 16
	.cfi_offset w30, -8
	.cfi_offset w29, -16
	add	x8, sp, #8
	bl	__ZN5alloc7raw_vec19RawVec$LT$T$C$A$GT$14grow_amortized17h3cc5d95f92336713E
	add	x0, sp, #8
	bl	__ZN5alloc7raw_vec14handle_reserve17hd59d21e0d4d82c08E
	ldp	x29, x30, [sp, #32]
	add	sp, sp, #48
	ret
	.cfi_endproc

	.p2align	2
__ZN5alloc7raw_vec19RawVec$LT$T$C$A$GT$7set_ptr17h2f849b8bb6ba0c25E:
	.cfi_startproc
	sub	sp, sp, #80
	stp	x29, x30, [sp, #64]
	add	x29, sp, #64
	.cfi_def_cfa w29, 16
	.cfi_offset w30, -8
	.cfi_offset w29, -16
	str	x0, [sp, #32]
	mov	x0, x1
	stur	x0, [x29, #-24]
	mov	x1, x2
	stur	x1, [x29, #-16]
	bl	__ZN4core3ptr8non_null16NonNull$LT$T$GT$4cast17hdf02a406a1816ea3E
	stur	x0, [x29, #-8]
	ldur	x0, [x29, #-8]
	bl	__ZN4core3ptr8non_null16NonNull$LT$T$GT$6as_ptr17h44d8f2010561699aE
	str	x0, [sp, #24]
	ldr	x0, [sp, #24]
	bl	__ZN4core3ptr6unique15Unique$LT$T$GT$13new_unchecked17h17763dfe2d4f0c8dE
	str	x0, [sp, #16]
	ldur	x1, [x29, #-16]
	ldur	x0, [x29, #-24]
	ldr	x9, [sp, #32]
	ldr	x8, [sp, #16]
	str	x8, [x9]
	bl	__ZN4core3ptr8non_null26NonNull$LT$$u5b$T$u5d$$GT$3len17h3617b763dd5619d7E
	str	x0, [sp, #8]
	ldr	x0, [sp, #8]
	bl	__ZN5alloc7raw_vec19RawVec$LT$T$C$A$GT$19capacity_from_bytes17h443c0a9e98a3bbd7E
	str	x0, [sp]
	ldr	x8, [sp]
	ldr	x9, [sp, #32]
	str	x8, [x9, #8]
	ldp	x29, x30, [sp, #64]
	add	sp, sp, #80
	ret
	.cfi_endproc

	.p2align	2
__ZN63_$LT$alloc..alloc..Global$u20$as$u20$core..alloc..Allocator$GT$10deallocate17hcd2f43d444edbc39E:
	.cfi_startproc
	sub	sp, sp, #64
	stp	x29, x30, [sp, #48]
	add	x29, sp, #48
	.cfi_def_cfa w29, 16
	.cfi_offset w30, -8
	.cfi_offset w29, -16
	str	x1, [sp, #16]
	sub	x0, x29, #16
	stur	x2, [x29, #-16]
	stur	x3, [x29, #-8]
	bl	__ZN4core5alloc6layout6Layout4size17h46e7cef1e8f4cdfcE
	str	x0, [sp, #24]
	ldr	x8, [sp, #24]
	cbnz	x8, LBB147_3
	b	LBB147_6
LBB147_3:
	ldr	x0, [sp, #16]
	bl	__ZN4core3ptr8non_null16NonNull$LT$T$GT$6as_ptr17h44d8f2010561699aE
	str	x0, [sp, #8]
	ldr	x0, [sp, #8]
	ldur	x1, [x29, #-16]
	ldur	x2, [x29, #-8]
	bl	__ZN5alloc5alloc7dealloc17h37ec622bfbceab47E
LBB147_6:
	ldp	x29, x30, [sp, #48]
	add	sp, sp, #64
	ret
	.cfi_endproc

	.p2align	2
__ZN63_$LT$alloc..alloc..Global$u20$as$u20$core..alloc..Allocator$GT$4grow17h393e7a54d241efcaE:
	.cfi_startproc
	sub	sp, sp, #32
	stp	x29, x30, [sp, #16]
	add	x29, sp, #16
	.cfi_def_cfa w29, 16
	.cfi_offset w30, -8
	.cfi_offset w29, -16
	mov	w8, #0
	and	w6, w8, #0x1
	bl	__ZN5alloc5alloc6Global9grow_impl17hd281a12dbbb55adfE
	str	x0, [sp]
	str	x1, [sp, #8]
	ldr	x1, [sp, #8]
	ldr	x0, [sp]
	ldp	x29, x30, [sp, #16]
	add	sp, sp, #32
	ret
	.cfi_endproc

	.p2align	2
__ZN63_$LT$alloc..alloc..Global$u20$as$u20$core..alloc..Allocator$GT$8allocate17h10033279cd8ce37dE:
	.cfi_startproc
	sub	sp, sp, #32
	stp	x29, x30, [sp, #16]
	add	x29, sp, #16
	.cfi_def_cfa w29, 16
	.cfi_offset w30, -8
	.cfi_offset w29, -16
	mov	w8, #0
	and	w3, w8, #0x1
	bl	__ZN5alloc5alloc6Global10alloc_impl17he60de9750063b472E
	str	x0, [sp]
	str	x1, [sp, #8]
	ldr	x1, [sp, #8]
	ldr	x0, [sp]
	ldp	x29, x30, [sp, #16]
	add	sp, sp, #32
	ret
	.cfi_endproc

	.p2align	2
__ZN66_$LT$core..alloc..layout..Layout$u20$as$u20$core..clone..Clone$GT$5clone17h6e770f230e90eed0E:
	.cfi_startproc
	mov	x8, x0
	ldr	x0, [x8]
	ldr	x1, [x8, #8]
	ret
	.cfi_endproc

	.p2align	2
__ZN68_$LT$std..process..ExitCode$u20$as$u20$std..process..Termination$GT$6report17hec5a6d11e44dc517E:
	.cfi_startproc
	sub	sp, sp, #32
	stp	x29, x30, [sp, #16]
	add	x29, sp, #16
	.cfi_def_cfa w29, 16
	.cfi_offset w30, -8
	.cfi_offset w29, -16
	mov	x8, x0
	sub	x0, x29, #1
	sturb	w8, [x29, #-1]
	bl	__ZN3std3sys4unix7process14process_common8ExitCode6as_i3217h0da305a8027481d8E
	str	w0, [sp, #8]
	ldr	w0, [sp, #8]
	ldp	x29, x30, [sp, #16]
	add	sp, sp, #32
	ret
	.cfi_endproc

	.p2align	2
__ZN70_$LT$alloc..vec..Vec$LT$T$C$A$GT$$u20$as$u20$core..ops..drop..Drop$GT$4drop17h1b07e420593862a7E:
	.cfi_startproc
	sub	sp, sp, #32
	stp	x29, x30, [sp, #16]
	add	x29, sp, #16
	.cfi_def_cfa w29, 16
	.cfi_offset w30, -8
	.cfi_offset w29, -16
	str	x0, [sp]
	bl	__ZN5alloc3vec16Vec$LT$T$C$A$GT$10as_mut_ptr17hfcc89accbe884ca3E
	str	x0, [sp, #8]
	ldr	x0, [sp, #8]
	ldr	x8, [sp]
	ldr	x1, [x8, #16]
	bl	__ZN4core3ptr24slice_from_raw_parts_mut17h706b99508678d760E
	ldp	x29, x30, [sp, #16]
	add	sp, sp, #32
	ret
	.cfi_endproc

	.p2align	2
__ZN77_$LT$alloc..raw_vec..RawVec$LT$T$C$A$GT$$u20$as$u20$core..ops..drop..Drop$GT$4drop17h218cadf8e0bd78bcE:
	.cfi_startproc
	sub	sp, sp, #48
	stp	x29, x30, [sp, #32]
	add	x29, sp, #32
	.cfi_def_cfa w29, 16
	.cfi_offset w30, -8
	.cfi_offset w29, -16
	str	x0, [sp]
	add	x8, sp, #8
	bl	__ZN5alloc7raw_vec19RawVec$LT$T$C$A$GT$14current_memory17h26ab90cd96cd0732E
	ldr	x8, [sp, #8]
	subs	x8, x8, #0
	cset	x8, ne
	subs	x8, x8, #1
	b.ne	LBB153_3
	ldr	x0, [sp]
	add	x8, sp, #8
	ldr	x1, [sp, #8]
	add	x8, x8, #8
	ldr	x2, [sp, #16]
	ldr	x3, [x8, #8]
	bl	__ZN63_$LT$alloc..alloc..Global$u20$as$u20$core..alloc..Allocator$GT$10deallocate17hcd2f43d444edbc39E
	b	LBB153_4
LBB153_3:
	ldp	x29, x30, [sp, #32]
	add	sp, sp, #48
	ret
LBB153_4:
	b	LBB153_3
	.cfi_endproc

	.p2align	2
__ZN78_$LT$alloc..collections..TryReserveErrorKind$u20$as$u20$core..clone..Clone$GT$5clone17hf793e943f15baccfE:
	.cfi_startproc
	sub	sp, sp, #64
	stp	x29, x30, [sp, #48]
	add	x29, sp, #48
	.cfi_def_cfa w29, 16
	.cfi_offset w30, -8
	.cfi_offset w29, -16
	stur	x0, [x29, #-8]
	ldur	x8, [x29, #-8]
	ldr	x8, [x8, #8]
	subs	x8, x8, #0
	cset	x8, ne
	cbz	x8, LBB154_3
	b	LBB154_4
LBB154_3:
	str	xzr, [sp, #24]
	str	xzr, [sp, #32]
	str	xzr, [sp, #32]
	b	LBB154_7
LBB154_4:
	ldur	x0, [x29, #-8]
	ldur	x8, [x29, #-8]
	str	x8, [sp]
	bl	__ZN66_$LT$core..alloc..layout..Layout$u20$as$u20$core..clone..Clone$GT$5clone17h6e770f230e90eed0E
	str	x0, [sp, #8]
	str	x1, [sp, #16]
	ldr	x0, [sp]
	bl	__ZN4core5clone5Clone5clone17hfe3df152d27b878eE
	ldr	x8, [sp, #16]
	ldr	x9, [sp, #8]
	str	x9, [sp, #24]
	str	x8, [sp, #32]
LBB154_7:
	ldr	x0, [sp, #24]
	ldr	x1, [sp, #32]
	ldp	x29, x30, [sp, #48]
	add	sp, sp, #64
	ret
	.cfi_endproc

	.p2align	2
__ZN79_$LT$core..result..Result$LT$T$C$E$GT$$u20$as$u20$core..ops..try_trait..Try$GT$6branch17h1245776b11895788E:
	.cfi_startproc
	sub	sp, sp, #32
	.cfi_def_cfa_offset 32
	str	x0, [sp, #8]
	ldr	x9, [sp, #8]
	mov	x8, #0
	subs	x9, x9, #0
	csinc	x8, x8, xzr, ne
	cbz	x8, LBB155_3
	b	LBB155_4
LBB155_3:
	ldr	x8, [sp, #8]
	str	x8, [sp, #16]
	b	LBB155_5
LBB155_4:
	str	xzr, [sp, #16]
	str	xzr, [sp, #16]
LBB155_5:
	ldr	x0, [sp, #16]
	add	sp, sp, #32
	ret
	.cfi_endproc

	.p2align	2
__ZN79_$LT$core..result..Result$LT$T$C$E$GT$$u20$as$u20$core..ops..try_trait..Try$GT$6branch17h295d98c7ad063056E:
	.cfi_startproc
	sub	sp, sp, #32
	.cfi_def_cfa_offset 32
	str	x8, [sp]
	str	x0, [sp, #8]
	ldr	x8, [x0]
	cbz	x8, LBB156_3
	b	LBB156_4
LBB156_3:
	ldr	x8, [sp]
	ldr	x10, [sp, #8]
	add	x9, x10, #8
	ldr	x11, [x10, #8]
	ldr	x9, [x9, #8]
	add	x10, x8, #8
	str	x11, [x8, #8]
	str	x9, [x10, #8]
	str	xzr, [x8]
	b	LBB156_5
LBB156_4:
	ldr	x9, [sp]
	ldr	x10, [sp, #8]
	add	x8, x10, #8
	ldr	x10, [x10, #8]
	ldr	x8, [x8, #8]
	str	x10, [sp, #16]
	str	x8, [sp, #24]
	add	x10, x9, #8
	ldr	x11, [sp, #16]
	ldr	x8, [sp, #24]
	str	x11, [x9, #8]
	str	x8, [x10, #8]
	mov	w8, #1
	str	x8, [x9]
LBB156_5:
	add	sp, sp, #32
	ret
	.cfi_endproc

	.p2align	2
__ZN79_$LT$core..result..Result$LT$T$C$E$GT$$u20$as$u20$core..ops..try_trait..Try$GT$6branch17h30345b5454e18820E:
	.cfi_startproc
	sub	sp, sp, #32
	.cfi_def_cfa_offset 32
	str	x8, [sp]
	str	x0, [sp, #8]
	ldr	x8, [x0]
	cbz	x8, LBB157_3
	b	LBB157_4
LBB157_3:
	ldr	x8, [sp]
	ldr	x10, [sp, #8]
	add	x9, x10, #8
	ldr	x11, [x10, #8]
	ldr	x9, [x9, #8]
	add	x10, x8, #8
	str	x11, [x8, #8]
	str	x9, [x10, #8]
	str	xzr, [x8]
	b	LBB157_5
LBB157_4:
	ldr	x9, [sp]
	ldr	x10, [sp, #8]
	add	x8, x10, #8
	ldr	x10, [x10, #8]
	ldr	x8, [x8, #8]
	str	x10, [sp, #16]
	str	x8, [sp, #24]
	add	x10, x9, #8
	ldr	x11, [sp, #16]
	ldr	x8, [sp, #24]
	str	x11, [x9, #8]
	str	x8, [x10, #8]
	mov	w8, #1
	str	x8, [x9]
LBB157_5:
	add	sp, sp, #32
	ret
	.cfi_endproc

	.p2align	2
__ZN79_$LT$core..result..Result$LT$T$C$E$GT$$u20$as$u20$core..ops..try_trait..Try$GT$6branch17h86e1781b507f9676E:
	.cfi_startproc
	sub	sp, sp, #48
	.cfi_def_cfa_offset 48
	str	x0, [sp, #8]
	str	x1, [sp, #16]
	ldr	x9, [sp, #8]
	mov	x8, #0
	subs	x9, x9, #0
	csinc	x8, x8, xzr, ne
	cbz	x8, LBB158_3
	b	LBB158_4
LBB158_3:
	ldr	x9, [sp, #8]
	ldr	x8, [sp, #16]
	str	x9, [sp, #24]
	str	x8, [sp, #32]
	b	LBB158_5
LBB158_4:
	str	xzr, [sp, #24]
	str	xzr, [sp, #32]
	str	xzr, [sp, #24]
LBB158_5:
	ldr	x0, [sp, #24]
	ldr	x1, [sp, #32]
	add	sp, sp, #48
	ret
	.cfi_endproc

	.p2align	2
__ZN79_$LT$core..result..Result$LT$T$C$E$GT$$u20$as$u20$core..ops..try_trait..Try$GT$6branch17hae803f4edd69bcd6E:
	.cfi_startproc
	sub	sp, sp, #32
	.cfi_def_cfa_offset 32
	str	x8, [sp]
	str	x0, [sp, #8]
	ldr	x8, [x0]
	cbz	x8, LBB159_3
	b	LBB159_4
LBB159_3:
	ldr	x8, [sp]
	ldr	x9, [sp, #8]
	ldr	x9, [x9, #8]
	str	x9, [x8, #8]
	str	xzr, [x8]
	b	LBB159_5
LBB159_4:
	ldr	x9, [sp]
	ldr	x10, [sp, #8]
	add	x8, x10, #8
	ldr	x10, [x10, #8]
	ldr	x8, [x8, #8]
	str	x10, [sp, #16]
	str	x8, [sp, #24]
	add	x10, x9, #8
	ldr	x11, [sp, #16]
	ldr	x8, [sp, #24]
	str	x11, [x9, #8]
	str	x8, [x10, #8]
	mov	w8, #1
	str	x8, [x9]
LBB159_5:
	add	sp, sp, #32
	ret
	.cfi_endproc

	.p2align	2
__ZN79_$LT$core..result..Result$LT$T$C$E$GT$$u20$as$u20$core..ops..try_trait..Try$GT$6branch17hc68c4abddef3b390E:
	.cfi_startproc
	sub	sp, sp, #32
	.cfi_def_cfa_offset 32
	str	x8, [sp]
	str	x0, [sp, #8]
	ldr	x8, [x0]
	cbz	x8, LBB160_3
	b	LBB160_4
LBB160_3:
	ldr	x8, [sp]
	str	xzr, [x8]
	b	LBB160_5
LBB160_4:
	ldr	x9, [sp]
	ldr	x10, [sp, #8]
	add	x8, x10, #8
	ldr	x10, [x10, #8]
	ldr	x8, [x8, #8]
	str	x10, [sp, #16]
	str	x8, [sp, #24]
	add	x10, x9, #8
	ldr	x11, [sp, #16]
	ldr	x8, [sp, #24]
	str	x11, [x9, #8]
	str	x8, [x10, #8]
	mov	w8, #1
	str	x8, [x9]
LBB160_5:
	add	sp, sp, #32
	ret
	.cfi_endproc

	.p2align	2
__ZN79_$LT$core..result..Result$LT$T$C$E$GT$$u20$as$u20$core..ops..try_trait..Try$GT$6branch17hf382a49c60bfc077E:
	.cfi_startproc
	sub	sp, sp, #80
	.cfi_def_cfa_offset 80
	str	x8, [sp]
	str	x0, [sp, #8]
	ldr	x9, [x0, #8]
	mov	x8, #0
	subs	x9, x9, #0
	csinc	x8, x8, xzr, ne
	cbz	x8, LBB161_3
	b	LBB161_4
LBB161_3:
	ldr	x9, [sp]
	ldr	x8, [sp, #8]
	ldr	q0, [x8]
	str	q0, [sp, #16]
	ldr	x8, [x8, #16]
	str	x8, [sp, #32]
	ldr	q0, [sp, #16]
	str	q0, [sp, #48]
	ldr	x8, [sp, #32]
	str	x8, [sp, #64]
	ldr	q0, [sp, #48]
	str	q0, [x9]
	ldr	x8, [sp, #64]
	str	x8, [x9, #16]
	b	LBB161_5
LBB161_4:
	ldr	x8, [sp]
	str	xzr, [x8]
	str	xzr, [x8, #8]
	str	xzr, [x8, #16]
	str	xzr, [x8, #8]
LBB161_5:
	add	sp, sp, #80
	ret
	.cfi_endproc

	.p2align	2
__ZN79_$LT$core..result..Result$LT$T$C$E$GT$$u20$as$u20$core..ops..try_trait..Try$GT$6branch17hfd89f22dd6d980ffE:
	.cfi_startproc
	sub	sp, sp, #48
	.cfi_def_cfa_offset 48
	str	x0, [sp, #8]
	str	x1, [sp, #16]
	ldr	x8, [sp, #8]
	cbz	x8, LBB162_3
	b	LBB162_4
LBB162_3:
	ldr	x8, [sp, #16]
	str	x8, [sp, #32]
	str	xzr, [sp, #24]
	b	LBB162_5
LBB162_4:
	mov	w8, #1
	str	x8, [sp, #24]
LBB162_5:
	ldr	x0, [sp, #24]
	ldr	x1, [sp, #32]
	add	sp, sp, #48
	ret
	.cfi_endproc

	.p2align	2
__ZN97_$LT$core..ops..range..RangeFull$u20$as$u20$core..slice..index..SliceIndex$LT$$u5b$T$u5d$$GT$$GT$9index_mut17h50ced70ee10a66c3E:
	.cfi_startproc
	ret
	.cfi_endproc

	.p2align	2
__ZN10impl_trait9stringify17h0cff6ed8e63b3fa1E:
Lfunc_begin12:
	.cfi_startproc
	.cfi_personality 155, _rust_eh_personality
	.cfi_lsda 16, Lexception12
	sub	sp, sp, #48
	stp	x29, x30, [sp, #32]
	add	x29, sp, #32
	.cfi_def_cfa w29, 16
	.cfi_offset w30, -8
	.cfi_offset w29, -16
	mov	x9, x0
	add	x0, sp, #8
	str	x9, [sp, #8]
Ltmp92:
	bl	__ZN45_$LT$T$u20$as$u20$alloc..string..ToString$GT$9to_string17h30cc7d66e92fe474E
Ltmp93:
	b	LBB164_5
LBB164_2:
	b	LBB164_4
LBB164_3:
Ltmp94:
	mov	x8, x1
	str	x0, [sp, #16]
	str	w8, [sp, #24]
	b	LBB164_2
LBB164_4:
	ldr	x0, [sp, #16]
	bl	__Unwind_Resume
LBB164_5:
	ldp	x29, x30, [sp, #32]
	add	sp, sp, #48
	ret
Lfunc_end12:
	.cfi_endproc
	.section	__TEXT,__gcc_except_tab
	.p2align	2
GCC_except_table164:
Lexception12:
	.byte	255
	.byte	255
	.byte	1
	.uleb128 Lcst_end12-Lcst_begin12
Lcst_begin12:
	.uleb128 Ltmp92-Lfunc_begin12
	.uleb128 Ltmp93-Ltmp92
	.uleb128 Ltmp94-Lfunc_begin12
	.byte	0
	.uleb128 Ltmp93-Lfunc_begin12
	.uleb128 Lfunc_end12-Ltmp93
	.byte	0
	.byte	0
Lcst_end12:
	.p2align	2

	.section	__TEXT,__text,regular,pure_instructions
	.p2align	2
__ZN10impl_trait9stringify17h75f563a221fe73efE:
Lfunc_begin13:
	.cfi_startproc
	.cfi_personality 155, _rust_eh_personality
	.cfi_lsda 16, Lexception13
	sub	sp, sp, #48
	stp	x29, x30, [sp, #32]
	add	x29, sp, #32
	.cfi_def_cfa w29, 16
	.cfi_offset w30, -8
	.cfi_offset w29, -16
	mov	x9, x0
	add	x0, sp, #12
	str	w9, [sp, #12]
Ltmp95:
	bl	__ZN45_$LT$T$u20$as$u20$alloc..string..ToString$GT$9to_string17h1a2bb907976a879aE
Ltmp96:
	b	LBB165_5
LBB165_2:
	b	LBB165_4
LBB165_3:
Ltmp97:
	mov	x8, x1
	str	x0, [sp, #16]
	str	w8, [sp, #24]
	b	LBB165_2
LBB165_4:
	ldr	x0, [sp, #16]
	bl	__Unwind_Resume
LBB165_5:
	ldp	x29, x30, [sp, #32]
	add	sp, sp, #48
	ret
Lfunc_end13:
	.cfi_endproc
	.section	__TEXT,__gcc_except_tab
	.p2align	2
GCC_except_table165:
Lexception13:
	.byte	255
	.byte	255
	.byte	1
	.uleb128 Lcst_end13-Lcst_begin13
Lcst_begin13:
	.uleb128 Ltmp95-Lfunc_begin13
	.uleb128 Ltmp96-Ltmp95
	.uleb128 Ltmp97-Lfunc_begin13
	.byte	0
	.uleb128 Ltmp96-Lfunc_begin13
	.uleb128 Lfunc_end13-Ltmp96
	.byte	0
	.byte	0
Lcst_end13:
	.p2align	2

	.section	__TEXT,__text,regular,pure_instructions
	.p2align	2
__ZN10impl_trait9stringify17hbea267ecb5f5fd5eE:
Lfunc_begin14:
	.cfi_startproc
	.cfi_personality 155, _rust_eh_personality
	.cfi_lsda 16, Lexception14
	sub	sp, sp, #48
	stp	x29, x30, [sp, #32]
	add	x29, sp, #32
	.cfi_def_cfa w29, 16
	.cfi_offset w30, -8
	.cfi_offset w29, -16
	mov	x9, x0
	add	x0, sp, #12
	str	w9, [sp, #12]
Ltmp98:
	bl	__ZN45_$LT$T$u20$as$u20$alloc..string..ToString$GT$9to_string17h247675055a8814a7E
Ltmp99:
	b	LBB166_5
LBB166_2:
	b	LBB166_4
LBB166_3:
Ltmp100:
	mov	x8, x1
	str	x0, [sp, #16]
	str	w8, [sp, #24]
	b	LBB166_2
LBB166_4:
	ldr	x0, [sp, #16]
	bl	__Unwind_Resume
LBB166_5:
	ldp	x29, x30, [sp, #32]
	add	sp, sp, #48
	ret
Lfunc_end14:
	.cfi_endproc
	.section	__TEXT,__gcc_except_tab
	.p2align	2
GCC_except_table166:
Lexception14:
	.byte	255
	.byte	255
	.byte	1
	.uleb128 Lcst_end14-Lcst_begin14
Lcst_begin14:
	.uleb128 Ltmp98-Lfunc_begin14
	.uleb128 Ltmp99-Ltmp98
	.uleb128 Ltmp100-Lfunc_begin14
	.byte	0
	.uleb128 Ltmp99-Lfunc_begin14
	.uleb128 Lfunc_end14-Ltmp99
	.byte	0
	.byte	0
Lcst_end14:
	.p2align	2

	.section	__TEXT,__text,regular,pure_instructions
	.p2align	2
__ZN10impl_trait9stringify17hca77692de5cd53f5E:
Lfunc_begin15:
	.cfi_startproc
	.cfi_personality 155, _rust_eh_personality
	.cfi_lsda 16, Lexception15
	sub	sp, sp, #48
	stp	x29, x30, [sp, #32]
	add	x29, sp, #32
	.cfi_def_cfa w29, 16
	.cfi_offset w30, -8
	.cfi_offset w29, -16
	mov	x9, x0
	add	x0, sp, #8
	str	x9, [sp, #8]
Ltmp101:
	bl	__ZN45_$LT$T$u20$as$u20$alloc..string..ToString$GT$9to_string17h6297386d4d63e4b3E
Ltmp102:
	b	LBB167_5
LBB167_2:
	b	LBB167_4
LBB167_3:
Ltmp103:
	mov	x8, x1
	str	x0, [sp, #16]
	str	w8, [sp, #24]
	b	LBB167_2
LBB167_4:
	ldr	x0, [sp, #16]
	bl	__Unwind_Resume
LBB167_5:
	ldp	x29, x30, [sp, #32]
	add	sp, sp, #48
	ret
Lfunc_end15:
	.cfi_endproc
	.section	__TEXT,__gcc_except_tab
	.p2align	2
GCC_except_table167:
Lexception15:
	.byte	255
	.byte	255
	.byte	1
	.uleb128 Lcst_end15-Lcst_begin15
Lcst_begin15:
	.uleb128 Ltmp101-Lfunc_begin15
	.uleb128 Ltmp102-Ltmp101
	.uleb128 Ltmp103-Lfunc_begin15
	.byte	0
	.uleb128 Ltmp102-Lfunc_begin15
	.uleb128 Lfunc_end15-Ltmp102
	.byte	0
	.byte	0
Lcst_end15:
	.p2align	2

	.section	__TEXT,__text,regular,pure_instructions
	.p2align	2
__ZN10impl_trait9stringify17hd727dc4d70e8f855E:
Lfunc_begin16:
	.cfi_startproc
	.cfi_personality 155, _rust_eh_personality
	.cfi_lsda 16, Lexception16
	sub	sp, sp, #48
	stp	x29, x30, [sp, #32]
	add	x29, sp, #32
	.cfi_def_cfa w29, 16
	.cfi_offset w30, -8
	.cfi_offset w29, -16
	mov	x9, x0
	mov	x0, sp
	str	x9, [sp]
	str	x1, [sp, #8]
Ltmp104:
	bl	__ZN45_$LT$T$u20$as$u20$alloc..string..ToString$GT$9to_string17hf3c2eeb32b098395E
Ltmp105:
	b	LBB168_5
LBB168_2:
	b	LBB168_4
LBB168_3:
Ltmp106:
	mov	x8, x1
	str	x0, [sp, #16]
	str	w8, [sp, #24]
	b	LBB168_2
LBB168_4:
	ldr	x0, [sp, #16]
	bl	__Unwind_Resume
LBB168_5:
	ldp	x29, x30, [sp, #32]
	add	sp, sp, #48
	ret
Lfunc_end16:
	.cfi_endproc
	.section	__TEXT,__gcc_except_tab
	.p2align	2
GCC_except_table168:
Lexception16:
	.byte	255
	.byte	255
	.byte	1
	.uleb128 Lcst_end16-Lcst_begin16
Lcst_begin16:
	.uleb128 Ltmp104-Lfunc_begin16
	.uleb128 Ltmp105-Ltmp104
	.uleb128 Ltmp106-Lfunc_begin16
	.byte	0
	.uleb128 Ltmp105-Lfunc_begin16
	.uleb128 Lfunc_end16-Ltmp105
	.byte	0
	.byte	0
Lcst_end16:
	.p2align	2

	.section	__TEXT,__text,regular,pure_instructions
	.p2align	2
__ZN10impl_trait4main17haf391e508ecbe496E:
	.cfi_startproc
	sub	sp, sp, #144
	stp	x29, x30, [sp, #128]
	add	x29, sp, #128
	.cfi_def_cfa w29, 16
	.cfi_offset w30, -8
	.cfi_offset w29, -16
	add	x8, sp, #8
	adrp	x0, l___unnamed_18@PAGE
	add	x0, x0, l___unnamed_18@PAGEOFF
	mov	w9, #1
	mov	x1, x9
	bl	__ZN10impl_trait9stringify17hd727dc4d70e8f855E
	add	x0, sp, #8
	bl	__ZN4core3ptr42drop_in_place$LT$alloc..string..String$GT$17heb60139a42813a57E
	add	x8, sp, #32
	mov	w0, #1
	bl	__ZN10impl_trait9stringify17h75f563a221fe73efE
	add	x0, sp, #32
	bl	__ZN4core3ptr42drop_in_place$LT$alloc..string..String$GT$17heb60139a42813a57E
	add	x8, sp, #56
	mov	w0, #1
	bl	__ZN10impl_trait9stringify17hbea267ecb5f5fd5eE
	add	x0, sp, #56
	bl	__ZN4core3ptr42drop_in_place$LT$alloc..string..String$GT$17heb60139a42813a57E
	sub	x8, x29, #48
	mov	w9, #1
	mov	x0, x9
	bl	__ZN10impl_trait9stringify17h0cff6ed8e63b3fa1E
	sub	x0, x29, #48
	bl	__ZN4core3ptr42drop_in_place$LT$alloc..string..String$GT$17heb60139a42813a57E
	sub	x8, x29, #24
	mov	w9, #1
	mov	x0, x9
	bl	__ZN10impl_trait9stringify17hca77692de5cd53f5E
	sub	x0, x29, #24
	bl	__ZN4core3ptr42drop_in_place$LT$alloc..string..String$GT$17heb60139a42813a57E
	ldp	x29, x30, [sp, #128]
	add	sp, sp, #144
	ret
	.cfi_endproc

	.globl	_main
	.p2align	2
_main:
	.cfi_startproc
	stp	x29, x30, [sp, #-16]!
	mov	x29, sp
	.cfi_def_cfa w29, 16
	.cfi_offset w30, -8
	.cfi_offset w29, -16
	mov	x2, x1
	mov	x8, x0
	sxtw	x1, w8
	adrp	x0, __ZN10impl_trait4main17haf391e508ecbe496E@PAGE
	add	x0, x0, __ZN10impl_trait4main17haf391e508ecbe496E@PAGEOFF
	bl	__ZN3std2rt10lang_start17h35bf129072d0a934E
	ldp	x29, x30, [sp], #16
	ret
	.cfi_endproc

	.section	__DATA,__const
	.p2align	3
l___unnamed_1:
	.quad	__ZN4core3ptr85drop_in_place$LT$std..rt..lang_start$LT$$LP$$RP$$GT$..$u7b$$u7b$closure$u7d$$u7d$$GT$17hc7f99bf783379448E
	.asciz	"\b\000\000\000\000\000\000\000\b\000\000\000\000\000\000"
	.quad	__ZN4core3ops8function6FnOnce40call_once$u7b$$u7b$vtable.shim$u7d$$u7d$17heea4fb4908dd35beE
	.quad	__ZN3std2rt10lang_start28_$u7b$$u7b$closure$u7d$$u7d$17h6e15b9395216f6f0E
	.quad	__ZN3std2rt10lang_start28_$u7b$$u7b$closure$u7d$$u7d$17h6e15b9395216f6f0E

	.p2align	3
l___unnamed_2:
	.quad	__ZN4core3ptr42drop_in_place$LT$alloc..string..String$GT$17heb60139a42813a57E
	.asciz	"\030\000\000\000\000\000\000\000\b\000\000\000\000\000\000"
	.quad	__ZN58_$LT$alloc..string..String$u20$as$u20$core..fmt..Write$GT$9write_str17hd9a85839a467144fE
	.quad	__ZN58_$LT$alloc..string..String$u20$as$u20$core..fmt..Write$GT$10write_char17hb6e5d54f07cbfc04E
	.quad	__ZN4core3fmt5Write9write_fmt17h635740e91515b4e7E

	.section	__TEXT,__const
l___unnamed_3:
	.ascii	"a Display implementation returned an error unexpectedly"

l___unnamed_19:
	.ascii	"/rustc/f1edd0429582dd29cccacaf50fd134b05593bd9c/library/alloc/src/string.rs"

	.section	__DATA,__const
	.p2align	3
l___unnamed_4:
	.quad	l___unnamed_19
	.asciz	"K\000\000\000\000\000\000\000Z\t\000\000\016\000\000"

	.p2align	3
l___unnamed_5:
	.quad	__ZN4core3ptr54drop_in_place$LT$$RF$mut$u20$alloc..string..String$GT$17h4c378456f04d395bE
	.asciz	"\b\000\000\000\000\000\000\000\b\000\000\000\000\000\000"
	.quad	__ZN50_$LT$$RF$mut$u20$W$u20$as$u20$core..fmt..Write$GT$9write_str17h8362ca3bd7d1f6a1E
	.quad	__ZN50_$LT$$RF$mut$u20$W$u20$as$u20$core..fmt..Write$GT$10write_char17h71ed5888404adcb9E
	.quad	__ZN50_$LT$$RF$mut$u20$W$u20$as$u20$core..fmt..Write$GT$9write_fmt17h097057e47b45041dE

	.section	__TEXT,__const
l___unnamed_6:
	.ascii	"invalid args"

l___unnamed_20:
	.ascii	"/rustc/f1edd0429582dd29cccacaf50fd134b05593bd9c/library/core/src/fmt/mod.rs"

	.section	__DATA,__const
	.p2align	3
l___unnamed_7:
	.quad	l___unnamed_20
	.asciz	"K\000\000\000\000\000\000\000k\001\000\000\r\000\000"

	.section	__TEXT,__const
l___unnamed_21:
	.ascii	"/rustc/f1edd0429582dd29cccacaf50fd134b05593bd9c/library/core/src/char/methods.rs"

	.section	__DATA,__const
	.p2align	3
l___unnamed_8:
	.quad	l___unnamed_21
	.asciz	"P\000\000\000\000\000\000\000v\006\000\000\026\000\000"

	.p2align	3
l___unnamed_9:
	.quad	l___unnamed_21
	.asciz	"P\000\000\000\000\000\000\000\220\006\000\000\n\000\000"

	.section	__TEXT,__const
l___unnamed_22:
	.ascii	"encode_utf8: need "

l___unnamed_23:
	.ascii	" bytes to encode U+"

l___unnamed_24:
	.ascii	", but the buffer has "

	.section	__DATA,__const
	.p2align	3
l___unnamed_10:
	.quad	l___unnamed_22
	.asciz	"\022\000\000\000\000\000\000"
	.quad	l___unnamed_23
	.asciz	"\023\000\000\000\000\000\000"
	.quad	l___unnamed_24
	.asciz	"\025\000\000\000\000\000\000"

	.p2align	3
l___unnamed_11:
	.quad	l___unnamed_21
	.asciz	"P\000\000\000\000\000\000\000\211\006\000\000\016\000\000"

	.section	__TEXT,__const
l___unnamed_25:
	.ascii	"/rustc/f1edd0429582dd29cccacaf50fd134b05593bd9c/library/core/src/alloc/layout.rs"

	.section	__DATA,__const
	.p2align	3
l___unnamed_12:
	.quad	l___unnamed_25
	.asciz	"P\000\000\000\000\000\000\000\030\001\000\0009\000\000"

	.p2align	3
l___unnamed_13:
	.quad	__ZN4core3ptr37drop_in_place$LT$core..fmt..Error$GT$17h0bc1e6b26e1f557cE
	.asciz	"\000\000\000\000\000\000\000\000\001\000\000\000\000\000\000"
	.quad	__ZN53_$LT$core..fmt..Error$u20$as$u20$core..fmt..Debug$GT$3fmt17hc7ef770e006a9f07E

	.section	__TEXT,__const
l___unnamed_14:
	.ascii	"called `Result::unwrap()` on an `Err` value"

	.section	__DATA,__const
	.p2align	3
l___unnamed_15:
	.quad	__ZN4core3ptr53drop_in_place$LT$core..alloc..layout..LayoutError$GT$17h5f4a3d83f06ee97dE
	.asciz	"\000\000\000\000\000\000\000\000\001\000\000\000\000\000\000"
	.quad	__ZN69_$LT$core..alloc..layout..LayoutError$u20$as$u20$core..fmt..Debug$GT$3fmt17hba6e378858104d38E

	.section	__TEXT,__literal16,16byte_literals
	.p2align	3
l___unnamed_16:
	.asciz	"\001\000\000\000\000\000\000\000\000\000\000\000\000\000\000"

	.section	__TEXT,__const
l___unnamed_26:
	.ascii	"/rustc/f1edd0429582dd29cccacaf50fd134b05593bd9c/library/alloc/src/raw_vec.rs"

	.section	__DATA,__const
	.p2align	3
l___unnamed_17:
	.quad	l___unnamed_26
	.asciz	"L\000\000\000\000\000\000\000\232\001\000\000\t\000\000"

	.section	__TEXT,__const
	.p2align	4
_str.0:
	.ascii	"attempt to divide by zero"

l___unnamed_18:
	.byte	97

.subsections_via_symbols
